 

Les Édeo
PARAÍBA

Governo do Estado

SECRETARIA DE ESTADO DA SAÚDE
Assessoria Técnica do Gabinete

RESPOSTA AO OFÍCIO 667/2021 — CPIDA PANDEMIA

Ao Excelentíssimo Senhor

Senador Omar Aziz

Presidente da CPI da Pandemia

Ofício PGE 075/2021

João Pessoa, 27 de maio de 2021.

Em atenção ao ofício 1047/2021, subscrito pelo senador Omar Aziz, encaminha-se

as informações solicitadas ao Estado da Paraíba, referentes aos requerimentos aprovados no
âmbito da CPI da Pandemia do Senado Federal.

Destaque-se que a resposta foi elaborada em consonância com as diretrizes

fixadas na Nota Técnica elaborada pelo Colégio Nacional do Procuradores Gerais do Estados
e do Distrito Federal - CONPEG, bem como da Nota Técnica da Consultoria Legislativa do
Senado, datada de 10 de maio do ano em curso, documentos que acompanharam o OFÍCIO Nº
48/2021, encaminhado pelo Fórum dos Governadores ao Presidente da CPI, senador Omar Aziz,
e que também integram os anexos desta resposta.

a) Qual o valor total recebido de fontes externas ao orçamento do tesouro com

destinação específica para combate à pandemia? Detalhar o nome da fonte, a

origem do recurso, o valor recebido mês a mês a partir do início da vigência do

decreto que reconhece estado de calamidade pública em razão da pandemia

provocada pelo Coronavírus SARS-COV-2.

 

 

Mês/Ano

 

Total de recursos
COVID transferidos do
Fundo Nacional de
Saúde para o Fundo
Estadual de Saúde
(Fonte 272 - conta
13581. X)*

 

Total de recursos COVID
transferidos do Fundo
Nacional de Saúde para o

Fundo Estadual de Saúde
(Fonte 160 — conta
13595-X)*

 

Total de recursos da Lei
173/2020 (auxílio
emergencial COVID)
(Fonte 119 - conta
14008-2)**

 

Gs

Secretaria de Estado da Saúde

Av. Dom Pedro Il, 1826 - Torre. João Pessoa- PB | (83) 3211.9000

wwnw.paraiba.pb.gov.br

 
 

Les Édeo
PARAÍBA

Governo do Estado

SECRETARIA DE ESTADO DA SAÚDE
Assessoria Técnica do Gabinete

 

 

 

 

 

 

 

 

 

 

 

 

 

 

 

Mar/2020 | R$ 9.800.344,52 R$ 0,00 R$ 0,00
Abr/2020 | R$ 12.023.905,97 R$ 0,00 R$ 0,00
Maio/2020 | R$ 10.704.000,00 R$ 0,00 R$ 0,00
Jun/2020 | R$ 6.192.000,00 R$ 8.799.996,00 R$ 45.702.684,56
Jul/2020 R$ 4.000.000,00 R$ 0,00 R$ 50.471.364,62
Ago/2020 | R$ 57.409.000,00 R$ 0,00 R$ 48.655.096,17
Set/2020 R$ 45.000,00 R$ 4.258.954,00 R$ 46.211.265,68
Out/2020 | R$ 7.050.000,00 R$ 0,00 R$ 0,00
Nov/2020 | R$ 330.316,80 R$ 0,00 R$ 0,00
Dez/2020 | R$ 3.478.517,00) R$ 14.017.215,00 R$ 0,00

jan/2021 | R$25.018.031,86 R$ 0,00 R$ 0,00
fev/2021 R$ 0,00 R$ 0,00 R$ 0,00
Mar/2021 | R$ 9.840.000,00 R$ 0,00 R$ 0,00
Abr/2021 | R$ 229.785,60 R$ 0,00 R$ 0,00

Total R$ 146.120.901,75 R$ 27.076.165,00 R$ 191.040.411,03

 

 

 

 

 

* Recursos COVID das transferências do Fundo Nacional de Saúde até o dia 30/04/2021.
** O valor disponível para execução foi R$ 189.130.006,92, após desconto obrigatório do
PASEP de cada parcela transferida.

b) Qual o valor total gasto em cada fonte de recurso detalhada no item [a] por item de
despesa? Detalhar o objeto de despesa, o nome do fornecedor, CNPJ, órgão que realizou a
despesa, o nº do processo licitatório, dispensa ou inexigibilidade, conforme o caso, o

número da nota de empenho e quantitativos adquiridos unitários e totais;

Comprovação das despesas realizadas com recursos transferidos até 30/04/2021. Em anexo,
segue lista de execução com o seguinte detalhamento: fonte de recurso, objeto da despesa, nome
do fornecedor, CNPJ, órgão que realizou a despesa, nº do processo licitatório, dispensa ou
inexigibilidade, nº da nota de empenho e quantitativos nas respectivas notas.

Segue link de empenho:
https://drive.google.com/drive/fo lders/| GcCUWLRGM gp Y Ozu9 dkB Ts0ZD6Jy TOH7sU?usp=sha

ring

acesso as notas de

e) Existem programações orçamentárias específicas ou marcadores no orçamento que
identifique tais gastos? Em caso positivo, enviar as informações pertinentes em planilha

eletrônica ou PDF;

Secretaria de Estado da Saúde
Av. Dom Pedro II, 1826 - Torre. João Pessoa- PB | (83) 3211.9000
wwnw.paraiba.pb.gov.br
66s

 
- Comes do
PARAÍBA

Governo do Estado

SECRETARIA DE ESTADO DA SAÚDE
Assessoria Técnica do Gabinete

 

No mês de março de 2020 criamos um marcador para os gastos-investimentos destinados ao
Combate à pandemia, a partir da liberação dos recursos pela Secretaria de Estado da Fazenda —
SEFAZ. Todos os recursos liberados com a finalidade de combater a pandemia foram
classificados como “COVID19”, possibilitando identificar em campo específico nas Notas de

Empenho, quando a mesmo tenha sido registrada com a finalidade de combate à pandemia.

d) Os recursos recebidos da União Federal foram mantidos em conta bancária
separada para melhor controle do seu uso? Envie todas as movimentações bancárias desde

o início da pandemia;

Sim. Comprovação, em anexo, dos extratos bancários das contas: 13581- X, 13595-X, 14008-2,

14131-3 e 14.044-9.

e) Há Demonstrativo do Fluxo de caixa de cada uma das fontes detalhadas no item [a]
demonstrando entradas, saídas e saldos? Enviar demonstrativo juntamente com os

respectivos extratos bancários;

Os recursos transferidos do Fundo Nacional de Saúde para o Fundo Estadual de Saúde
são alocados nas contas específicas para todas as ações de saúde, sendo organizadas em dois
blocos: Bloco de Manutenção das Ações e Serviços Públicos de Saúde (Fonte 272 - conta
13581- X) e o Bloco de Estruturação da Rede de Serviços Públicos de Saúde (Fonte 160 — conta
13595-X).

Demonstrativo do Fluxo de caixa do Bloco de Manutenção das Ações e Serviços Públicos de

Saúde, ação covid, (Fonte 272 - conta 13581- X)

Demonstrativo da execução dos recursos do Bloco de Manutenção das Ações e Serviços
Públicos de Saúde, Ação COVID, fonte 272, conta 13581- X. Secretaria de Estado da
Saúde, 2020.

Secretaria de Estado da Saúde
Av. Dom Pedro II, 1826 - Torre. João Pessoa- PB | (83) 3211.9000
wwnw.paraiba.pb.gov.br
G6s
+ Crer Edo
: PARAÍBA

Governo do Estado

  

SECRETARIA DE ESTADO DA SAÚDE
Assessoria Técnica do Gabinete

 

 

 

 

 

 

Mês EMPENHADO PAGO ANULAÇÃO SALDO A PAGAR
mar/20 | R$ 367.200,00 | R$ - |R$ - [R$ 367.200,00
abr/20 | R$ 35.896.819,93 | R$ 32.626.291,41 | R$ - [R$ 3.270.528,52
mai/20 | R$ 608.133,44 | R$ 1.073.489,54 | R$ - [R$ 465.356,10
jun/20 | R$ 2.244.727,45 | R$ 2.078.907,67 | R$ - [R$ 165.819,78
jul/20 | R$ 5.257.261,05 | R$ 5.061.322,35 | R$ - [R$ 195.938,70

 

ago/20 | R$ 3.689.327,92 | R$ 4.871.761,80 | R$ 44.116,00 -R$ 1.138.317,88
set/20 | R$ 4.800.817,41 | R$ 4.565.681,79 | R$ 10.682,58 | R$ 245.818,20
out/20 | R$ 4.354.742,57 | R$ 3.739.116,73 | R$ 4.376,00 | R$ 620.001,84
nov/20 | R$ 4.133.377,75 | R$ 3.630.698,82 | R$ - R$ 502.678,93
dez/20 | R$ 9.300.431,13 | R$ 7.322.742,51 | R$ 10.194,00 | R$ 1.987.882,62
TOTAL | R$ 70.652.838,65 | R$ 64.970.012,62 | R$ 69.368,58 | R$ | 5.752.194,61

 

 

 

 

 

 

 

 

 

 

 

 

Fonte: dados do SIAF, 20/05/2021.

Demonstrativo da execução dos recursos do Bloco de Manutenção das Ações e Serviços
Públicos de Saúde, Ação COVID, fonte 272, conta 13581- X. Secretaria de Estado da
Saúde, 2021.

 

MÊS, EMPENHADO PAGO ANULAÇÃO SALDO A PAGAR
jan/21 | R$ - |r$ - |R$ - |R$ -
fev/21 | R$ 17.481.379,36 | R$ 17.438.783,63 | R$ - |Ré 42.595,73
mar/21 | R$ 15.721.820,38 | R$ 5.419.420,53 | R$ 35.500,00 | R$ 10.337.899,85
abr/21 | R$ 5.609.213,44 | R$ 3.593.913,99 | R$ - |R$ 2.015.299,45
mai/21 | R$ 530192783 |R$ 1.363.926,67 | R$ - |R$ 3.937.991,16
TOTAL | R$ 44.114.341,01 | R$ 27.816.054,82 | R$ 35.500,00 | R$ 16.333.786,19

 

 

 

 

 

 

 

 

 

 

 

 

 

Fonte: dados do SIAF, 20/05/2021.

Demonstrativo da execução dos recursos do Bloco de Manutenção das Ações e Serviços
Públicos de Saúde, Ação COVID, fonte 272, conta 13581- X. Secretaria de Estado da
Saúde, 2020 e 2021.

 

 

 

 

 

 

 

 

 

 

ANO: TOTAL EMPENHADO TOTAL PAGO - ANULAÇÃO SALDO A PAGAR
2020 | R$ 70.652.838,65 | R$ 64.970.012,62 | R$ 69.368,58 | R$ 5.752.194,61
ANO. TOTAL EMPENHADO TOTAL PAGO TOTAL ANULADO | SALDO A PAGAR
2021 | R$ 44.114.341,01 | R$ 27.816.054,82 | R$ 35.500,00 | R$ 16.333,786,19
TOTAL [R$ 114.767.179,66 | R$ 9275606744 | R$ | 104.868,58] R$ 22.085.980,80

 

Fonte: dados do SIAF, 20/05/2021.

Secretaria de Estado da Saúde
Av. Dom Pedro II, 1826 - Torre. João Pessoa- PB | (83) 3211.9000
wwnw.paraiba.pb.gov.br
G6s
+ Crer Edo
: PARAÍBA

Governo do Estado

SECRETARIA DE ESTADO DA SAÚDE
Assessoria Técnica do Gabinete

  

Demonstrativo do Fluxo de caixa do Bloco de Estruturação da Rede de Serviços Públicos
de Saúde, ação COVID (Fonte 160 — conta 13595-X). Secretaria de Estado da Saúde, 2021.

MÊS EMPENHADO | PAGO ANULAÇÃO SALDO A PAGAR
abr-21, R$ 1.239.660,00 0 O R$ 1.239.660,00

Demonstrativo do Fluxo de caixa da Lei Complementar 173/2020 (fonte 119)

O valor total para execução da Lei Complementar 173/2020 (fonte 119), auxílio
emergencial para as ações de Saúde e Assistência Social foi R$ 189.130.006,92, sendo
incorporado R$ 1.208.674,95 referente aos rendimentos da conta, totalizando R$
190.338.681,87. Abaixo, descreve-se o demonstrativo das transferências para Secretaria de

Estado da Saúde e Secretaria de Estado de Desenvolvimento Humano.

Demonstrativo de repasses da Secretaria de Estado da Fazenda (conta 14008-2) para Secretaria
de Estado da Saúde (conta 14.044-9) através das Guias de Movimentação de Recursos
2020/2021, fonte 119. Comprovação em anexo.

 

 

 

 

 

 

 

 

 

 

 

 

 

 

cóDico órgão MR DTRIPASSC | CRÉDITO NA CONTA DA SAÚDE | VALOR DEVOLVIDO PARA SEFAZ

250001 saúDE 2» spo |p$ 19.950.000,00 | R$ -

250001 SAÚDE 30 21/80 | R$ 11.200.000,00 | R$

250001 SAÚDE 39 18/90 [Ri 55.997.909,97 | R

250001 SAUDE 43 20/11/20 | R$ 12.000,000,00 | R$

250001 SAUDE 4 05/02/2021 | R$ 36,782.564,22 | R$

25001 san 2 26/03/7071 | R$ 49.351412,65 | R$ -

250001 SAUDE 2349 16/0/2021 | R$ - Ins 20.146.607,45

250001 SAÚDE 18 28/04/2021 | R$ 17.653.720,48 | R$ -
IOIAL DISPONIBILIZADO PARA SAÚDE RS 1/3./99,099,87

 

 

Fonte: dados do SIAF, 19/05/2021.

Demonstrativo da execução dos recursos da fonte 119 2020/2021. Secretaria de Estado da Saúde,

2020 e 2021.

Secretaria de Estado da Saúde
Av. Dom Pedro II, 1826 - Torre. João Pessoa- PB | (83) 3211.9000
wwnw.paraiba.pb.gov.br
G6s

 
Les Édeo
PARAÍBA

Governo do Estado

SECRETARIA DE ESTADO DA SAÚDE
Assessoria Técnica do Gabinete

 

 

 

 

 

 

 

 

 

 

 

 

 

ANO/MÊS: RECEITAS CONV' | RENDIMENTO | DESPESAS/MÊS DEV.SEFAZ | |TRANSF. JUDICIAL | SALDO DO ÚLTIMO DIA ÚTL Mês,
AGO/2020 31. 150.000,00] 18.557,02] 13.385.772,38] 0,00 0,00 17.782. 784,64]
SET/2020 55.997.999,97] 38.250,63] 16.286.957,61 0,00 0,00 57.532.077,63
our/2020 0,00) 60.703,21] 13.442.334,00] 0,00] 0,00] 44.150.446,84|
NOv/2020 12.000.000,00] 47.306,27] 13.990.530,09] 0,00] 7.513,74 42.199. 709,28]
DEZ/2020 0,00] 42.137,90] 16.538. 189,49 0,00 0,00 25.703.657,69]
JAN/2021 0,00] 25.812,26] 14.013.954,79 0,00 0,00 11.715.515,16|
FEv/2021 36, 782.564,22] 33.548,97] 17.685.498,01 0,00 0,00 30.846. 130,34]
MAR/2021 40.351.412,65] 53.007,35] 20.261.384,60| 0,00] 0,00] 50.929.165,74|
ABR/2021 17.663. 730,48] 68.985,86] 19.220.061,06| 20.146.607,45] 0,00 29.355.213,57]
ABR/2021 0,00] 33.402,46] 5.762.981,55] 0,00] 0,00] 23.625.634,48]

TOTAL GERAL | 193.945.707,32] 421.711,93 | 150.587.663,58 | 20.146.607,45 7.513,74

 

 

 

 

 

 

 

 

Fonte: dados do SIAF, 19/05/2021.

Demonstrativo dos repasses da Secretaria de Estado da Fazenda (conta 14008-2) para Secretaria
de Estado de Desenvolvimento Humano (conta 14131-3) através das Guias de Movimentação de

Recursos 2021, fonte 119. Comprovação em anexo.

CÓDIGO ÓRGÃO MR DATA REPASSE CRÉDITO
270001 SEDH u 14/04/2021 R$ — 14.000.000,00
270001 SEDH 13 23/04/2021 R$ 2.539.582,00
TOTAL DISPONIBILIZADO PARA SEDH R$ 16.539.582,00

Fonte: dados do SIAF, 19/05/2021.

Demonstrativo da execução dos recursos transferidos à Secretaria de Estado de Desenvolvimento

Humano 2021. Anexo, segue as comprovações.

 

DESPESAS EXERCÍCIO 2021

 

VALOR EMPENHADO VALOR PAGO SALDO A PAGAR

 

 

R$ 6.981.082,00 R$ 3.877.282,00 R$ 3.103.800,00

 

 

 

 

Fonte: dados do SIAF, 19/05/2021.

Saldo das contas

Os saldos existentes nas contas estão com processos em fase de tramitação e/ou empenhados.

 

I Nº conta | Fonte | Saldo |

 

Secretaria de Estado da Saúde
Av. Dom Pedro II, 1826 - Torre. João Pessoa- PB | (83) 3211.9000
wwnw.paraiba.pb.gov.br
66s

 
- Comes do
PARAÍBA

Governo do Estado

SECRETARIA DE ESTADO DA SAÚDE
Assessoria Técnica do Gabinete

 

 

 

 

 

 

 

 

 

13581-X 27 (CORONAVIRUS | Conta do Bloco de Manutenção das
(COVID-19) e demais | Ações e Serviços Públicos de Saúde
ações da saúde das transferências do Fundo

Nacional de Saúde para todas as
ações. Extrato do mês de maio
disponível em anexo, porém
envolve todas as ações de saúde.

13595-X 160 (CORONAVIRUS | Conta do Bloco de Estruturação da
(COVID-19) e demais | Rede de Serviços Públicos de
ações da saúde Saúde das transferências do Fundo

Nacional de Saúde para todas as
ações de saúde. Extrato do mês de
maio disponível em anexo, porém
envolve todas as ações de saúde.

14008-2 119 — SEFAZ R$ 3.397,41

14.044-9 119 — Saúde R$ 23.625.634,48

14131-3 119 — SEDH R$ 12.662.300,00

 

 

f) Algum saldo de alguma das fontes detalhadas no item [a] foi incorporado à conta única
do tesouro? Explique;

Não.

gs) Faça um comparativo entre os valores gastos com recursos do tesouro
estadual/municipal versus os gastos realizados com recursos de fontes externas,
principalmente da União Federal, recebidos exclusivamente para aplicação na calamidade

pública;

Resumo da aplicação nas ações COVID por origem recursos, período de março/2020 a

abril/2021.

 

 

 

 

 

 

 

 

 

Item Valor Part(%)
Tesouro Estadual 59.888.822,77 13,79%)
Gov Federal 322.962.108,68 74,38%
*Recursos Vinculados 51.361.636,80 11,83%)
SOMA 434.212.568,25 100,00%

(*) Recursos do Tesouro Estadual com Aplicação Vinculada

Secretaria de Estado da Saúde
Av. Dom Pedro II, 1826 - Torre. João Pessoa- PB | (83) 3211.9000
wwnw.paraiba.pb.gov.br
G6s
- Comes do
PARAÍBA

Governo do Estado

SECRETARIA DE ESTADO DA SAÚDE
Assessoria Técnica do Gabinete

 

h) Foi contratada alguma operação de crédito interna e externa para obtenção de recursos
para combate à pandemia? Enviar toda documentação pertinente;

Não.

i) Foi firmado algum termo de cooperação ou acordo com alguma instituição nacional
para combate à COVID-19? Algum tipo de benefício pecuniário ou vantagem de qualquer
natureza estão contidas no documento? Envie a documentação pertinente;

Não.

j) Houve doações em dinheiro ou de material ou mesmo cessão de uso de bens móveis ou
imóveis? Especifique;

O Estado da Paraíba elaborou um guia com as orientações para recebimento de doações e
transparência das informações, disponível no portal https://paraibasolidaria.pb.gov.br/. No

tocante às doações do Ministério da Saúde, segue em anexo os arquivos 2020 e 2021.

k) Quais leis foram aprovadas ou decretos foram expedidos contendo medidas de ordem
econômico-financeira durante a pandemia, como reparcelamento de dívidas e renúncia de
receita? Envie a publicação destes normativos e as informações quantitativas sobre esses

dados, com o respectivo impacto nas contas públicas;

1. MEDIDA PROVISÓRIA Nº 296 DE 24 DE MARÇO DE 2021 - DOE DE 25/03/2021
(CONVERTIDA NA LEINº 11.953 DE 12 DE MAIO DE 2021 — DOE DE 13/05/2021):

- isenção do ICMS nas operações realizadas por microempresas e empresas de pequeno porte
optantes pelo Regime Especial Unificado de Arrecadação de Tributos e Contribuições - Simples
Nacional, de que trata a Lei Complementar nº 123, de 14 de dezembro de 2006, relativas aos
períodos de apuração dos meses de março, abril e maio de 2021, que  desempenhem
atividades econômicas enquadradas nos CNAE's 5611-2/01, 5611-2/03, 5611-2/04, 5611-2/05
e 5620-1/02;

Impacto da medida: R$ 4,5 milhões

- remissão e anistia dos créditos tributários de ICMS, constituídos ou não, relativos às operações
e prestações realizadas com o equipamento respiratório Elmo, suas partes e peças, utilizado no

âmbito das medidas de enfrentamento à pandemia causada pelo novo agente do Coronavírus

Secretaria de Estado da Saúde
Av. Dom Pedro II, 1826 - Torre. João Pessoa- PB | (83) 3211.9000
wwnw.paraiba.pb.gov.br
G6s
- Comes do
PARAÍBA

Governo do Estado

SECRETARIA DE ESTADO DA SAÚDE
Assessoria Técnica do Gabinete

 

(SARS-CoV-2), nos termos do Convênio ICMS 13/21, de 26 de fevereiro de 2021, cujos fatos
geradores tenham ocorrido no período de 1º de janeiro de 2021 até a data de publicação desta

Medida Provisória (Convênio ICMS 13/21);

- autorização para não exigir o Imposto sobre Operações relativas à Circulação de Mercadorias e
sobre Prestações de Serviços de Transporte Interestadual e Intermunicipal e de Comunicação —
ICMS — devido pelo descumprimento de compromissos assumidos por contribuinte, como
requisito à concessão de benefícios fiscais previstos no Convênio ICMS 188/17, de 4 de
dezembro de 2017, bem como os reinstituídos nos termos da Lei Complementar nº 160, de 7 de
agosto de 2017, e do Convênio ICMS 190/17, de 15 de dezembro de 2017, especificamente
relacionados ao setor aéreo, aplicando-se somente aos contribuintes que comprovarem, conforme
dispuser a legislação interna deste Estado, que o descumprimento resulta exclusivamente dos
efeitos econômicos negativos relacionados, direta ou indiretamente, ao estado de calamidade ou
de emergência de saúde pública decorrente da pandemia da doença infecciosa viral respiratória
causada pelo novo Coronavírus (COVID-19) (Convênios ICMS 64/20 e 28/21), bem como a
concessão de remissão e anistia dos créditos tributários do ICMS, constituídos ou não, cujos
fatos geradores tenham ocorrido até a data de publicação desta Medida Provisória, relativos à
fruição desses benefícios fiscais e atendidas as condições nele estabelecidas (Convênios ICMS

64/20 e 28/21).

2. DECRETO Nº 40.170 DE 03 DE ABRIL DE 2020 (DOE DE 04/04/2020):

- concessão de diferimento do pagamento do Imposto sobre Operações Relativas à Circulação de
Mercadorias e sobre Prestações de Serviços de Transporte Interestadual e Intermunicipal e de
Comunicação — ICMS - relativo ao diferencial de alíquota devido nas aquisições interestaduais
de aparelhos, máquinas, equipamentos e instrumentos médico-hospitalares, realizadas
diretamente por hospitais, clínicas e demais estabelecimentos congêneres, desde que destinados à
integralização no ativo imobilizado, com o objetivo de combater a pandemia de infecção humana
causada pelo Coronavírus (COVID-19), definida pela Organização Mundial de Saúde.

Impacto da medida: R$ 25 milhões de reais.

3. DECRETO Nº 40.171 DE 03 DE ABRIL DE 2020 (DOE DE 04/04/2020):

Secretaria de Estado da Saúde
Av. Dom Pedro II, 1826 - Torre. João Pessoa- PB | (83) 3211.9000
wwnw.paraiba.pb.gov.br
G6s
- Comes do
PARAÍBA

Governo do Estado

SECRETARIA DE ESTADO DA SAÚDE
Assessoria Técnica do Gabinete

 

- suspensão das cobranças dos financiamentos contraídos pelos pequenos e microempresários
junto ao Empreender Paraíba por 90 dias;

Impacto da medida: R$ 1,549 milhão de reais.

- suspensão da cobrança de juros e multas referentes às parcelas vincendas nos meses de abril,
maio e junho para os clientes adimplentes com o Empreender Paraíba, mediante solicitação
destes, até o final do prazo do financiamento;

Impacto da medida: R$ 238,2 mil reais.

- criação de linha especial de crédito pelo Empreender Paraíba para assinatura de contratos e
liberação do recurso para mil quatrocentos e cinquenta (1.450) proponentes, distribuídos entre
Pessoa Física e Pessoa Jurídica (microempresa), respeitando a ordem de inscrição dos projetos;
Impacto da medida: R$ 9,719 milhões de reais.

- aquisição de gêneros alimentícios para abastecimento e distribuição, preferencialmente, dos
produtores da Agricultura Familiar;

Impacto da medida: R$ 1,153 milhões de reais.

- aquisição de proteína animal (peixes e aves) para abastecimento e distribuição,
preferencialmente, das suas respectivas Cooperativas;

Impacto da medida: R$ 754,1 mil reais.

- concessão de dilatação, por 90 (noventa) dias, dos prazos para o pagamento dos parcelamentos
administrativos vincendos de débitos tributários Estaduais e do pagamento dos parcelamentos de
débitos tributários do Programa de Recuperação Fiscal do Estado da Paraíba - REFIS/PB, de que
trata o Decreto nº 24.091, de 13 de maio de 2003;

Impacto da medida: R$ 12,3 milhões de reais.

- concessão de dilatação do prazo de pagamento do ICMS, sem atualização monetária, relativo
aos meses de abril, maio e junho de 2020, devido: i) pelo Microempreendedor Individual - MEI,
de que trata a Lei Complementar nº 123, de 14 de dezembro de 2006, por 180 (cento e oitenta)
dias; ii) pelas Microempresas e Empresas de Pequeno Porte optante pelo Simples Nacional, de
que trata a Lei Complementar nº 123, de 14 de dezembro de 2006, por 90 (noventa) dias,
observado o seguinte escalonamento;

Impacto da medida: R$ 75 milhões de reais.

- suspensão até 30 (trinta) de junho de 2020: i) da cobrança de ICMS - Bloqueio nos Postos
Fiscais de fronteira; ii) da remessa para inscrição em Dívida Ativa, pelas repartições

preparadoras, de processos administrativos aptos a serem inscritos;

Secretaria de Estado da Saúde
Av. Dom Pedro II, 1826 - Torre. João Pessoa- PB | (83) 3211.9000
wwnw.paraiba.pb.gov.br
66s
- Comes do
PARAÍBA

Governo do Estado

SECRETARIA DE ESTADO DA SAÚDE
Assessoria Técnica do Gabinete

 

Impacto da medida: R$ 5 milhões de reais.

4. DECRETO Nº 40.257 DE 18 DE MAIO DE 2020 (DOE DE 19/05/20):

- aquisição de 60 mil cestas básicas para distribuição com pessoas em condição de
vulnerabilidade social.

Impacto da medida: R$ 2,937 milhões de reais.

- aporte de R$ 1.000.000,00 para aquisição de gêneros alimentícios para abastecimento e
distribuição, preferencialmente, dos produtores da Agricultura Familiar.

Impacto da medida: R$ 1 milhão de reais.

5. DECRETO Nº 40.366 DE 16 DE JULHO DE 2020 (DOE DE 17/07/2020):
- postergação do pagamento do ICMS - SIMPLES NACIONAL - FRONTEIRA, classificado no
código de receita 1124, referente às competências de junho e julho de 2020.

Impacto da medida: R$ 30 milhões de reais.

6. DECRETO Nº 40.453 DE 21 DE AGOSTO DE 2020 (DOE DE 22/08/2020):

- instituição do Programa de incentivo à regularização de débitos tributários relacionados ao
Imposto sobre Operações relativas à Circulação de Mercadorias e sobre Prestações de Serviços
de Transporte Interestadual, Intermunicipal e de Comunicação - ICMS, ao Fundo de Combate e
Erradicação da Pobreza no Estado da Paraíba - FUNCEP, Lei nº 7.611, de 30 de junho de 2004, e
ao Fundo Estadual de Equilíbrio Fiscal - FEEF, Lei nº 10.758, de 14 de setembro de 2016,
denominado “SEFAZ SEM AUTUAÇÃO”, destinado a possibilitar o parcelamento
extraordinário ou a quitação, à vista, de tais débitos quando declarados pelos contribuintes ou
detectados por meio de procedimento de monitoramento realizado pela Secretaria de Estado da
Fazenda - SEFAZ/PB, cujos fatos geradores tenham ocorrido no período compreendido entre os
meses de janeiro e julho de 2020, observado o disposto neste Decreto e nas demais normas
previstas na legislação tributária estadual.

Impacto da medida: R$ 6,869 milhões de reais.

7. DECRETO Nº 41.085 DE 08 DE MARÇO DE 2021 (DOE DE 09/03/21):
- distribuição de 100 mil cestas básicas com pessoas em condição de vulnerabilidade social e

segmentos mais afetados pela crise.

Secretaria de Estado da Saúde
Av. Dom Pedro II, 1826 - Torre. João Pessoa- PB | (83) 3211.9000
wwnw.paraiba.pb.gov.br
G6s
- Comes do
PARAÍBA

Governo do Estado

SECRETARIA DE ESTADO DA SAÚDE
Assessoria Técnica do Gabinete

 

Impacto da Medida: R$ 4,434 milhões de reais.

- distribuição de 500 mil cestas básicas para os alunos da rede pública estadual nos meses de
março e abril.

Impacto da Medida: R$ 29,21 milhões de reais.

- duplicação da destinação de recursos das ações do Projeto Acolher para atender as necessidades
de custeio das Instituições de Longa Permanência para Idosos — ILPIs.

Impacto da Medida: R$ 2 milhões de reais.

- ampliação do atendimento dos Restaurantes Populares com aumento de 50% no número de
refeições diárias fornecidas pelo prazo de dois meses.

Impacto da Medida: R$ 1,816 milhão de reais.

- aquisição e distribuição de 60 toneladas de peixes destinadas ao atendimento de pessoas em
situação de vulnerabilidade social.

Impacto da Medida: R$ 809,4 mil reais.

- aquisição de 500 toneladas de alimentos aos produtores da Agricultura Familiar para
distribuição às pessoas em situação de vulnerabilidade social.

Impacto da Medida: R$ 2,650 milhões de reais.

- ampliação das ações de assistência social e segurança alimentar voltadas à população em
situação de rua, com aumento de 50% no número de refeições diárias fornecidas.

Impacto da Medida: R$ 5,403 milhões de reais.

- reajustar em 42% o valor do Cartão Alimentação, passando para R$ 50,00 (cinquenta reais)
para as atuais 52 mil famílias beneficiárias do programa por dois meses.

Impacto da Medida: R$ 1,560 milhão de reais.

- isenção do pagamento das contas de água de 26.000 famílias cadastradas na Tarifa Social junto
à Cagepa, durante os meses de março e abril de 2021.

Impacto da Medida: R$ 408 mil reais.

- isenção do pagamento das contas de água de bares, restaurantes, pizzarias, lanchonetes e
sorveterias, cadastradas junto à Cagepa na razão social da empresa, durante os meses de março e
abril de 2021.

Impacto da medida: R$: 1,52 milhão de reais.

8. DECRETO Nº 41.131 DE 29 DE MARÇO DE 2021 (DOE DE 30/03/2021):

Secretaria de Estado da Saúde
Av. Dom Pedro II, 1826 - Torre. João Pessoa- PB | (83) 3211.9000
wwnw.paraiba.pb.gov.br
G6s
- Comes do
PARAÍBA

Governo do Estado

SECRETARIA DE ESTADO DA SAÚDE
Assessoria Técnica do Gabinete

 

- concessão de isenção do Imposto sobre Operações relativas à Circulação de Mercadorias e
sobre Prestações de Serviços de Transporte Interestadual e Intermunicipal e de Comunicação -
ICMS - as operações realizadas com o equipamento respiratório Elmo, suas partes e peças,
utilizado no âmbito das medidas de enfrentamento à pandemia causada pelo novo agente do

Coronavírus (SARS-CoV-2), nas seguintes operações (Convênio ICMS 13/21).

9. DECRETO Nº 41.132 DE 29 DE MARÇO DE 2021 (DOE DE 30/03/2021):

- concessão de isenção do Imposto sobre Operações relativas à Circulação de Mercadorias e
sobre Prestações de Serviços de Transporte Interestadual e Intermunicipal e de Comunicação -
ICMS - às operações com vacinas e insumos destinados à produção de vacinas para o
enfrentamento à pandemia causada pelo novo agente do Coronavírus (SARS-CoV-2),
classificados pela NCM como 3002.20.19 e 3002.20.29, e as respectivas prestações de serviços
de transporte (Convênio ICMS 15/21).

10. DECRETO Nº 41.133 DE 29 DE MARÇO DE 2021 (DOE DE 30/03/2021):

- prorrogação do prazo para recolhimento do ICMS, no âmbito do Simples Nacional do tributo
de que trata o inciso VII do "caput" do art. 13 e as alíneas "a", "b" e "c" do inciso V do 8 3º do
art. 18-A, todos da Lei Complementar nº 123 , de 14 de dezembro de 2006.

Impacto da medida: R$ 45 milhões de reais.

- suspensão por 90 (noventa) dias, do prazo para pagamento dos parcelamentos administrativos
de débitos tributários estaduais, vincendos em abril, maio e junho de 2021, devido pelas
microempresas e empresas de pequeno porte optantes pelo Simples Nacional, de que trata a Lei
Complementar nº 123, de 14 de dezembro de 2006, do setor de bares, restaurantes, lanchonetes,
casas de chá e similares, bem como serviços de alimentação para eventos e recepções;

Impacto da medida: R$ 1,5 milhão de reais.

- suspensão por 90 (noventa) dias, do prazo para o pagamento dos parcelamentos extraordinários
(REFIS) de débitos tributários estaduais vincendos em abril, maio e junho de 2021, devido pelas
microempresas e empresas de pequeno porte optantes pelo Simples Nacional, de que trata a Lei
Complementar nº 123, de 14 de dezembro de 2006, do setor de bares, restaurantes, lanchonetes,
casas de chá e similares, bem como serviços de alimentação para eventos e recepções.

Impacto da medida: R$ 2,5 milhões de reais.

Secretaria de Estado da Saúde
Av. Dom Pedro II, 1826 - Torre. João Pessoa- PB | (83) 3211.9000
wwnw.paraiba.pb.gov.br
G6s
- Comes do
PARAÍBA

Governo do Estado

SECRETARIA DE ESTADO DA SAÚDE
Assessoria Técnica do Gabinete

 

11. DECRETO Nº 41.161 DE 09 DE ABRIL DE 2021 (DOE DE 10/04/2021):

- não exigência do crédito tributário relativo ao Imposto sobre Operações relativas à Circulação
de Mercadorias e sobre Prestações de Serviços de Transporte Interestadual e Intermunicipal e de
Comunicação — ICMS — devido pelo descumprimento de compromissos assumidos por
contribuinte como contrapartida à concessão de benefícios fiscais ou financeiro-fiscais

(Convênio ICMS 73/20).

12. DECRETO Nº 41.169 DE 14 DE ABRIL DE 2021 (DOE DE 15/04/2021):

- não exigência do Imposto sobre Operações relativas à Circulação de Mercadorias e sobre
Prestações de Serviços de Transporte Interestadual e Intermunicipal e de Comunicação - ICMS -
devido pelo descumprimento de compromissos assumidos por contribuinte, como requisito à
concessão de benefícios fiscais previstos no Convênio ICMS 188/17, de 4 de dezembro de 2017,
bem como os reinstituídos nos termos da Lei Complementar nº 160, de 7 de agosto de 2017, e
do Convênio ICMS 190/17, de 15 de dezembro de 2017, especificamente relacionados ao setor
aéreo, aplicando-se somente aos contribuintes que comprovarem, conforme dispuser a legislação
deste Estado, que o descumprimento resulta exclusivamente dos efeitos econômicos negativos
relacionados, direta ou indiretamente, ao estado de calamidade ou de emergência de saúde
pública decorrente da pandemia da doença infecciosa viral respiratória causada pelo novo

Coronavírus-COVID-19 (Convênio-ICMS 64/20).

Impacto da medida: R$ 1.904.606,49.

13. Cestas básicas distribuídas pela Secretaria de Educação - LEI Nº 11.682 DE 04 D
MAIO DE 2020
-Entrega de 983.354 (novecentos e oitenta e três mil, trezentos e cinquenta e quatro) cestas

básicas a 223 municípios dentro da Paraíba.

Impacto da medida: R$ 57,8 milhões de reais.

Secretaria de Estado da Saúde
Av. Dom Pedro II, 1826 - Torre. João Pessoa- PB | (83) 3211.9000
wwnw.paraiba.pb.gov.br
G6s
  

Governo do Estado

SECRETARIA DE ESTADO DA SAÚDE
Assessoria Técnica do Gabinete

1) — em qual medida as transferências recebidas da União Federal à título de combate à
pandemia aliviaram a frustração de receitas nesse período? Enviar planilha evidenciando

o déficit ou superávit na conta única do tesouro decorrente da participação dos recursos

 

 

 

 

 

 

 

 

 

 

 

 

 

 

 

 

 

 

 

 

 

 

 

 

 

 

 

 

 

transferidos.”
VALORES DE 2020
R$ milhões
2020
MÊS AFE-Z
ICMS IPVA ITCD IMPOSTOS FPE TOTAL | AFE(*) (e) TOTAL TOTAL

A B c D E=B+C+D F G=E+F H r J K=H+1+] |M=G+K
Jan 559,6 80,7 32 603,6 408,3 | LO11,9 - - - - 1.011,9
Fev 487,3 30,0 25 519,8 583,0 | 1.102,8 - - - - 1.102,8
Mar 454,8 29,0 23 486,1 34,9 831,0 - - - - 831,0
Abr 418,1 19,0 11 438,1 337,8 FIS,9 171 - - 17,1 7931
Mai 347,6 281 11 376,8 352,5 729,3 204 - - 20,4 Tas,
Jun 429,0 473 24 4a 287,7 766,1 104,8 45,7 112,0 262,5 | 1.028,56
Jul 448,0 54,3 40 506,3 293,8 800,1 Tas 50,5 112,0 237,3 | 1.037,4
Ago 510,9 46,7 32º 560,5 314,8 BIA L7 48,7 112,0 162,4 | 1.037,8
Set 535,7 a3,3 E 584,0 253,7 837,7 as 46,2 112,0 199,7 | LO37A4
Out 545,9 35,1 5,0 586,0 339,4 E 60,2 - - 60,2 585,5
Nov 578,7 24,3 67 610,8 445,9 | 1.056,7 - - - - 1.055,7
Dez 632,0 26,0 38 661,7 465,9 | 1.127,6 - - - - 1.127,6
TOTAL | 5.948,5 “23,8 39,8 6.012,1| 4.427,8| 10.839,8 320,5 191,0 8,1 959,7 | 11.799,5)

 

'Obs: Dados gerenciais. Fonte: ATF/GOA/SEFAZ-PB.

Obs2: Arrecadação e transferência (100%).

(*) AFE: Apoio Financeiro concedido pela União aos Entes Federativos (Art. 1º da Lei nº 14.041/20).

(*) AFE-2: Apoio Financeiro concedido pela União aos Entes Federativos (Art. 5º, Inc. |, da Lei Complementar nº 173/20).
(***) AFE-2: Apoio Financeiro concedido pela União aos Entes Federativos (Art. 5º, Inc. 11, da Lei Complementar nº 173/20).

 

Secretaria de Estado da Saúde
Av. Dom Pedro II, 1826 - Torre. João Pessoa- PB | (83) 3211.9000
wwnw.paraiba.pb.gov.br
G6s
Governo do Estado

SECRETARIA DE ESTADO DA SAÚDE
Assessoria Técnica do Gabinete

 

DIFERENÇA ENTRE 2020 E 2019

 

 

 

 

 

 

 

 

 

 

 

 

 

 

 

 

 

 

 

 

 

 

 

 

 

 

 

 

 

 

 

 

 

 

 

 

 

 

 

 

 

 

 

 

 

 

 

 

 

2020 - 2019)
MÊS AFEZ | AFEZ
ICMS | IPVA | ITCD [IMPOSTOS| FPE | TOTAL | AFE(*) TOTAL | TOTAL
te) (52)
A B c D fe=B+c+D| F [|G=E+F| H 1 1 |K=H+1+5]M=G+K
Jan 46,2 80 14 536 | 352 184 - - - - 18,4
Fev 23,2 04] 02 233 94,7 | 1180 - - - - 118,0
Mar 27) 72 05 60 |- 171) 11,2 - - - = | wu?
abr | 394) 194). 42] 630 | 204 | 833 17,1 - - 171 |- 662
Mai | 1350) 112) 111] I574|- 1048) 2621 20,4 - - 20,4 | 241,8
Jun | 322 ma|-  o7|- 185 [| J48|- S34| 1048 as7| 1120 262,5 | 1691
Jul | 194 13,4 0,7 |- ss 27 zo 748 sos | 1120 2878 | 2808]
Ago E n23| as a | as 26 L7 487 | 1120 1524 | 165,0
set 73,3 10,3 20 857 | 602 254 415 462 | 1120 1997 | 2251
Out 570 37 1,2 720 431 | u51 60,2 - - 60,2) 175,3
Nov 68,4 53 31 76,8 5L1| 1279 - - - - 127,9
Dez 39,2 28 0,6 1026 -  04| 1021 - - - - 102,1
TOTAL 198,2 307]. 93 219,7]- 167,3 52,4) 320,5) 1910] asa 959,7] 1.012,14
Obs: Dados gerenciais. Fonte: ATF/GOA/SEFAZ-PB.
Obs2: Arrecadação e transferência (100%).
(:) AFE: Apoio Financeiro concedido pela União aos Entes Federativos (Art. 1º da Lei nº 14.041/20).
(**) AFE-2: Apoio Financeiro concedido pela União aos Entes Federativos (Art. 5º, Inc. |, da Lei Complementar nº 173/20).
janceiro concedido pela União aos Entes Federativos (Art. 5º, Inc. Il, da Lei Complementar nº 173/20).
VARIAÇÃO ENTRE 2020 E 2019
R$ milhões,
VARIAÇÃO RELATIVA.
MES | mms | ipva | imp [impostos| FrE | Tora | ares) | ME2Z | AFEZ | vorar | TOTAL
(+) (5)
A B c D |E=B+c+D) F |G=E+F| H 1 3 |K=H+145|M=6+K
Jan | 9,00% | 17,14% | 76,63% | 9,74% | 7,93% | 1,85%
Fev | 499% | 128% | -9,06% | 469% | 19,39% | 11,98%
Mar | 287% |-19,90% | 25,85% | 1,24% | -a,74% | -1,33%
Abr | -8,62% | -50,56% | -78,93% | -12,57% | -5,69% | -9,70%
Mai | -27,98% | -28,58% | -90,88% | -25,46% | -22,91% | -26,44%
Jun | -698% | 43,68% | -26,18% | -3,73% | -20,64% | -10,86%
Jul | -4,15% | 32,83% | 20,79% | -103% | -058% | -0,87%
Ago | 719% | 35,61% | -A5,15% | 8,53% | 11,64% | 0,29%
Set | 15,86% | 31,37% | 66,65% | 17,19% | -19,19% | 3,13%
Out | 14,00% | 11,82% | 32,59% | 14,00% | 14,55% | 14,20%
Nov | 13,37% | 27,59% | 87,81% | 14,38% | 12,94% | 13,76%
Dez | 18,52% | 12,00% | 17,73% | 18,34% | -0,10% | 9,96%
TOTAL | 345% | 781% | 18,88% | 3,55% | 3,64% | 0,09%

 

 

 

 

 

 

 

 

 

 

 

 

 

 

[Obs: Dados gerenciais. Fonte: ATE/GOA/SEFAZ-PB.
(Obs2: Arrecadação e transferência (100%).
(7) AFE: Apoio Financeiro concedido pela União aos Entes Federativos (Art. 1º da Lei nº 14.041/20).
(F*) AFE-2: Apoio Financeiro concedido pela União aos Entes Federativos (Art. 5º, Inc. |, da Lei Complementar nº 173/20).
(7) AFE-2: Apoio Financeiro concedido pela União aos Entes Federativos (Art. 5º, Inc. Il, da Lei Complementar nº 173/20).

 

   

 

Secretaria de Estado da Saúde
Av. Dom Pedro II, 1826 - Torre. João Pessoa- PB | (83) 3211.9000
wwnw.paraiba.pb.gov.br
G6s
Les Édeo
PARAÍBA

Governo do Estado

SECRETARIA DE ESTADO DA SAÚDE
Assessoria Técnica do Gabinete

 

Sendo essas as informações a serem prestadas, ficamos à disposição para prestar outros

esclarecimentos que se façam necessários.

 
  

    

trAsseráde Medeiros

Procurador-Geral do Estado da Paraíba

Secretaria de Estado da Saúde
Av. Dom Pedro II, 1826 - Torre. João Pessoa- PB | (83) 3211.9000
wwnw.paraiba.pb.gov.br
G6s
G3331908141090341
19/05/2021 08:19:20

 

Cliente - Conta atual

 

Agência 1618-7
Conta corrente 13595-X PB FES INVESTIMENTO SUS
Período do extrato 09/2020

 

Lançamentos
Dtbalancete Dt.movimento Ag.origem Lote Histórico Documento  ValorR$ Saldo
17/08/2020 0000 00000 000 Saldo Anterior 0,00 C
30/09/2020 0000 00000 000SALDO 0,00 C

 

 

Transação efetuada com sucesso por: JB599661 JOSE F CHAGAS.

Serviço de Atendimento ao Consumidor - SAC 0800 729 0722 Ouvidoria BB 0800 729 5678
Para deficientes auditivos 0800 729 0088
G3331908141090341
19/05/2021 08:18:43

 

Cliente - Conta atual

 

Agência 1618-7
Conta corrente 13595-X PB FES INVESTIMENTO SUS
Período do extrato 06/2020

 

Lançamentos

Dt balancete Dt. movimento Ag. origem Lote Histórico Documento. Valor R$ Saldo
29/05/2020 0000 00000 000 Saldo Anterior 0,00 C
26/06/2020 26/06/2020 0000 14056 632 Ordem Bancária 2.428.274.000.001 8.799.996,00 C
26/06/2020 26/06/2020 0000 12334 920 Blog Judicial-Bacen Jud 12.072.457.211.001 37.800,00 *
26/06/2020 26/06/2020 0000 12334 920 Blog Judicial-Bacen Jud 12.072.757.920.101 11.992,41 *
26/06/2020 26/06/2020 0000 12334 920 Blog Judicial-Bacen Jud 12.072.828.950.101 2.010,00 *
26/06/2020 26/06/2020 0000 11334 284 Blog Judicial-Bacen Jud 12.072457.211.001 | 37.800,00 D
26/06/2020 26/06/2020 0000 11334 284 Blog Judicial-Bacen Jud 12.072.757.920.101  11.99241D
26/06/2020 26/06/2020 0000 11334 284 Blog Judicial-Bacen Jud 12.072.828.950.101 2.010,00 D
26/06/2020 26/06/2020 0000 00000 345 BB CP Automatico S P 70 8.748.193,59D 0,00 C
30/06/2020 30/06/2020 0000 11162 631 Desbl Judicial-Bacen Jud 88.200.001 37.800,00 C
30/06/2020 30/06/2020 0000 11162 631 Desbl Judicial-Bacen Jud 88210001 11.992,41 C
30/06/2020 30/06/2020 0000 | 11162 631 Desbl Judicial-Bacen Jud 88.220.001 2.010,00 €
30/06/2020 30/06/2020 0000 13373 500 Transf Depósito Judicial 12.072457.211.001 | 37.800,00D
30/06/2020 30/06/2020 0000 13373 500 Transf Depósito Judicial 12.072.757.920.101  11.99241D
30/06/2020 30/06/2020 0000 13373 500 Transf Depósito Judicial 12.072.828.950.101 2.010,00 D
30/06/2020 0000 00000500SALDO 0,00 C

 

OBSERVAÇÕES :

 

 

 

Transação efetuada com sucesso por: JB599661 JOSE F CHAGAS.

Serviço de Atendimento ao Consumidor - SAC 0800 729 0722 Ouvidoria BB 0800 729 5678
Para deficientes auditivos 0800 729 0088
 

Cliente - Conta atual

G3331908141090341
19/05/2021 08:19:43

 

Agência
Conta corrente
Período do extrato

13595-X PB FES INVESTIMENTO SUS

 

 

Lançamentos
Dt balancete Dt. movimento Ag.origem Lote Histórico Documento Valor R$ Saldo
29/12/2020 0000 00000 000 Saldo Anterior 0,00 C
04/01/2021 0000 14056 632 Ordem Bancária 5.799.089.000.001 7.114.376,00 C
005304930001-71 DIRETORIA EXECUTIVA DO
04/01/2021 0000 14056 632 Ordem Bancária 5.799.924.000.001 636.853,00 C
005304930001-71 DIRETORIA EXECUTIVA DO
04/01/2021 0000 00000 345 BB CP Automatico S P 70 7.751.229,00 D 0,00 C
31/01/2021 0000 00000 999SALDO 0,00 C
OBSERVAÇÕES:

 

Transação efetuada com sucesso por: JB599661 JOSE F CHAGAS.

Serviço de Atendimento ao Consumidor - SAC 0800 729 0722

Ouvidoria BB 0800 729 5678

Para deficientes auditivos 0800 729 0088
G3331908141090341
19/05/2021 08:18:50

 

Cliente - Conta atual

 

Agência 1618-7
Conta corrente 13595-X PB FES INVESTIMENTO SUS
Período do extrato 07/2020

 

Lançamentos

Dt balancete Dt. movimento Ag.origem Lote Histórico Documento. Valor R$ Saldo
30/06/2020 0000 00000 000 Saldo Anterior 0,00 C
08/07/2020 08/07/2020 0000 14056 632 Ordem Bancária 2.627.662.000.001 912.000,00 C
08/07/2020 08/07/2020 0000 12334 920 Blog Judicial-Bacen Jud 12.077.561.720.501 69.780,00 *
08/07/2020 08/07/2020 0000 | 11334 284 Blog Judicial-Bacen Jud 12.077.561.720.501 | 69.780,00 D
08/07/2020 08/07/2020 0000 00000 345 BB CP Automatico S P 70 842.220,00 D 0,00 C
09/07/2020 09/07/2020 0000 13138 132 Emissão Ordem Bancária 3.616 364.000,00 D
09/07/2020 09/07/2020 0000 00000 855 BB CP Automatico S P 70 364.000,00 C 0,00 C
10/07/2020 10/07/2020 0000 13138 132 Emissão Ordem Bancária 3.617 928.800,00 D
10/07/2020 10/07/2020 0000 11162 631 Desbl Judicial-Bacen Jud 88.610.001 | 69.780,00 C
10/07/2020 10/07/2020 0000 13373 500 Transf Depósito Judicial 12.077.561.720.501 | 69.780,00 D
10/07/2020 10/07/2020 0000 00000 855 BB CP Automatico S P 70 928.800,00 C 0,00 C
24/07/2020 24/07/2020 0000 13138 132 Emissão Ordem Bancária 3.630 1.169.600,00 D
24/07/2020 24/07/2020 0000 00000 855 BB CP Automatico S P 70 1.169.600,00 C 0,00 C
31/07/2020 0000 00000855SALDO 0,00 C

 

 

Transação efetuada com sucesso por: JB599661 JOSE F CHAGAS.

Serviço de Atendimento ao Consumidor - SAC 0800 729 0722 Ouvidoria BB 0800 729 5678
Para deficientes auditivos 0800 729 0088
G3331908141090341
19/05/2021 08:20:01

Cliente - Conta atual

 

 

 

Agência 1618-7
Conta corrente 13595-X PB FES INVESTIMENTO SUS
Período do extrato Mês atual
Lançamentos

Dtbalancete Dt.movimento Ag.origem Lote Histórico Documento  ValorR$ Saldo

14/04/2021 0000 00000 000 Saldo Anterior 0,00 C

Investcom Resgate Autom. 38.254.695,97 C
Saldo 38.254.695,97 C
Juros * 0,00
Data de Debito de Juros 31/05/2021
IOF * 0,00
Data de Debito de IOF 01/06/2021

Saldo de fundos de investimento
S.Público Automático 38.254.695,37

 

 

OBSERVAÇÕES :

 

Transação efetuada com sucesso por: JB599661 JOSE F CHAGAS.

Serviço de Atendimento ao Consumidor - SAC 0800 729 0722 Ouvidoria BB 0800 729 5678
Para deficientes auditivos 0800 729 0088
G3331908141090341
19/05/2021 08:18:23

 

Cliente - Conta atual

 

Agência 1618-7
Conta corrente 13595-X PB FES INVESTIMENTO SUS
Período do extrato 03/2020

 

Lançamentos

Dt balancete Dt.movimento Ag.origem Lote Histórico Documento. Valor R$ Saldo
17/01/2020 0000 00000 000 Saldo Anterior 0,00 C
06/03/2020 06/03/2020 0000 | 13138 132 Emissão Ordem Bancária 3.499 23.250,00 D
06/03/2020 06/03/2020 0000 00000 855 BB CP Admin Supremo 70  23.250,00C 0,00C
18/03/2020 18/03/2020 0000 | 13138 132 Emissão Ordem Bancária 3.508 162.500,00 D
18/03/2020 18/03/2020 0000 00000 855 BB CP Admin Supremo 70 162.500,00 C 0,00 C
31/03/2020 0000 | 00000 855SALDO 0,00 C

 

OBSERVAÇÕES :

 

 

 

Transação efetuada com sucesso por: JB599661 JOSE F CHAGAS.

Serviço de Atendimento ao Consumidor - SAC 0800 729 0722 Ouvidoria BB 0800 729 5678
Para deficientes auditivos 0800 729 0088
G3331908141090341
19/05/2021 08:18:28

 

Cliente - Conta atual

 

Agência 1618-7
Conta corrente 13595-X PB FES INVESTIMENTO SUS
Período do extrato 04/2020

 

Lançamentos

Dt balancete Dt. movimento Ag. origem Lote Histórico Documento. Valor R$ Saldo
18/03/2020 0000 00000 000 Saldo Anterior 0,00 C
06/04/2020 06/04/2020 0000 99015 470 Transferência enviada 553.832.000.090.000 4.488.750,00 D
06/04/2020 06/04/2020 0000 00000 855 BB CP Automatico S P 70 4.488.750,00 G 0,00 C
07/04/2020 07/04/2020 0000 99015 470 Transferência enviada 553.832.000.090.000 458.785,80 D
07/04/2020 07/04/2020 0000 00000 855 BB CP Automatico S P 70 458.785,80C 0,00 C
14/04/2020 14/04/2020 0000 13138 132 Emissão Ordem Bancária 3528 36.876,00D
14/04/2020 14/04/2020 0000 00000 855 BB CP Automatico S P 70 | 36.876,00C 0,00 C
17/04/2020 17/04/2020 0000 13138 132 Emissão Ordem Bancária 3.531  80.388,00D
17/04/2020 17/04/2020 0000 00000 855 BB CP Automatico S P 70  80.388,00C 0,00 C
29/04/2020 29/04/2020 0000 13138 132 Emissão Ordem Bancária 3.589 200.004,00 D
29/04/2020 29/04/2020 0000 00000 855 BB CP Automatico S P 70 200.004,00 G 0,00 C
30/04/2020 30/04/2020 0000 13138 132 Emissão Ordem Bancária 3541 — 89.180,00D
30/04/2020 30/04/2020 0000 00000 855 BB CP Automatico S P 70  89.180,00C
30/04/2020 0000  00000855SALDO 0,00 C

 

 

Transação efetuada com sucesso por: JB599661 JOSE F CHAGAS.

Serviço de Atendimento ao Consumidor - SAC 0800 729 0722 Ouvidoria BB 0800 729 5678
Para deficientes auditivos 0800 729 0088
G3331908141090341
19/05/2021 08:18:33

 

Cliente - Conta atual

 

Agência 1618-7
Conta corrente 13595-X PB FES INVESTIMENTO SUS
Período do extrato 05/2020

 

Lançamentos

Dt balancete Dt.movimento Ag.origem Lote Histórico Documento. Valor R$ Saldo
30/04/2020 0000 00000 000 Saldo Anterior 0,00 C
07/05/2020 07/05/2020 0000 | 13138 132 Emissão Ordem Bancária 3.545 77.710,08D
07/05/2020 07/05/2020 0000 00000 855 BB CP Automatico S P 70 77710,08C 0,00C
13/05/2020 13/05/2020 0000 13138 132 Emissão Ordem Bancária 3.550 87.696,00 D
13/05/2020 13/05/2020 0000 00000 855 BB CP Automatico S P 70 87.696,00C 0,00C
20/05/2020 20/05/2020 0000 | 13138 132 Emissão Ordem Bancária 3.559 42.000,00 D
20/05/2020 20/05/2020 0000 00000 855 BB CP Automatico S P 70 42000,00C 0,00C
22/05/2020 22/05/2020 0000 | 13138 132 Emissão Ordem Bancária 3.561 791.200,00 D
2205/2020 22/05/2020 0000 00000 855 BB CP Automatico S P 70 791.200,00C 0,00C
29/05/2020 29/05/2020 0000 | 13138 132 Emissão Ordem Bancária 3.567 140.000,00 D
2905/2020 29/05/2020 0000 00000 855 BB CP Automatico S P 70 140.000,00 C 0,00 C
31/05/2020 0000 | 00000 855SALDO 0,00 C

 

 

Transação efetuada com sucesso por: JB599661 JOSE F CHAGAS.

Serviço de Atendimento ao Consumidor - SAC 0800 729 0722 Ouvidoria BB 0800 729 5678
Para deficientes auditivos 0800 729 0088
 

Cliente - Conta atual

G3331908141090341
19/05/2021 08:19:38

 

Agência 1618-7
Conta corrente 13595-X PB FES INVESTIMENTO SUS
Período do extrato 12/2020

 

 

Lançamentos
Dt. balancete Dt. movimento Ag. origem Lote Histórico Documento Valor R$ Saldo

29/10/2020 0000 00000 000 Saldo Anterior 0,00 C

10/12/2020 0000 14056 632 Ordem Bancária 5.275.257.000.001 399.986,00 C
005304930001-71 DIRETORIA EXECUTIVA DO

10/12/2020 0000 00000 345 BB CP Automatico S P 70 399.986,00 D 0,00 C

15/12/2020 0000 13138 132 Emissão Ordem Bancária 3.749 1.199.999,99 D

15/12/2020 0000 00000 855 BB CP Automatico S P 70 1.199.999,99 C 0,00 C

17/12/2020 0000 14056 632 Ordem Bancária 5.407.689.000.001 1.351.600,00 C
005304930001-71 DIRETORIA EXECUTIVA DO

17/12/2020 0000 00000 345 BB CP Automatico S P 70 1.351.600,00 D 0,00 C

22/12/2020 0000 14056 632 Ordem Bancária 5.534.711.000.001 51.239,00 C
005304930001-71 DIRETORIA EXECUTIVA DO

22/12/2020 0000 00000 345 BB CP Automatico S P 70 51.239,00 D 0,00 C

23/12/2020 0000 14056 632 Ordem Bancária 5.599.864.000.001 | 339.998,00 C
005304930001-71 DIRETORIA EXECUTIVA DO

23/12/2020 0000 00000 345 BB CP Automatico S P 70 339.998,00 D 0,00 C

24/12/2020 0000 14138 632 Ordem Bancária 202.012.230.024.928 23.342,70 C
036095950001-75 FUNDO ESTADUAL DE SAUD

24/12/2020 0000 00000 345 BB CP Automatico S P 70 23.342,70 D 0,00 €

28/12/2020 0000 14138 632 Ordem Bancária 202.012.280.024.567 6.648,00 C
073129120001-48 PB-SEC DE ESTADO DAS F

28/12/2020 0000 13138 132 Emissão Ordem Bancária 3.759 23.342,70 D

28/12/2020 0000 00000 855 BB CP Automatico S P 70 16.694,70 C 0,00 C

29/12/2020 0000 14056 632 Ordem Bancária 5.701.419.000.001 5.500.000,00 C
005304930001-71 DIRETORIA EXECUTIVA DO

29/12/2020 0000 13138 132 Emissão Ordem Bancária 3.761 6.648,00 D

29/12/2020 0000 00000 345 BB CP Automatico S P 70 5.493.352,00 D 0,00 C

31/12/2020 0000 00000 999S ALDO 0,00 C

OBSERVAÇÕES :

 

Transação efetuada com sucesso por: JB599661 JOSE F CHAGAS.

Serviço de Atendimento ao Consumidor - SAC 0800 729 0722

Ouvidoria BB 0800 729 5678
Para deficientes auditivos 0800 729 0088
Cliente - Conta atual

G3331908141090341
19/05/2021 08:19:56

 

Agência 1618-7
Conta corrente 13595-X PB FES INVESTIMENTO SUS
Período do extrato 04/2021

 

 

 

Lançamentos
Dt. balancete Dt.movimento Ag.origem Lote Histórico Documento Valor R$ Saldo
17/02/2021 0000 00000 000 Saldo Anterior 0,00 C
14/04/2021 0000 13138 132 Emissão Ordem Bancária 3.827 | 720.000,00 D
14/04/2021 0000 00000 855 BB CP Automatico S P 70 720.000,00 C 0,00 C
30/04/2021 0000 00000 999SALDO 0,00 C
A OBSERVAÇÕES:
Transação efetuada com sucesso por: JB599661 JOSE F CHAGAS.
Serviço de Atendimento ao Consumidor - SAC 0800 729 0722 Ouvidoria BB 0800 729 5678

Para deficientes auditivos 0800 729 0088
 

Cliente - Conta atual

G3331908141090341
19/05/2021 08:19:49

 

Agência
Conta corrente
Período do extrato

13595-X PB FES INVESTIMENTO SUS

 

 

Lançamentos

Dt balancete Dt. movimento Ag.origem Lote Histórico Documento | ValorR$ Saldo
04/01/2021 0000 00000 000 Saldo Anterior 0,00 C
11/02/2021 0000 14138 632 Ordem Bancária 202.102.110.006.931 60.614,90 C

073129120001-48 PB-SEC DE ESTADO DAS F
11/02/2021 0000 00000 345 BB CP Automatico S P 70 60.614,90 D 0,00 C
17/02/2021 0000 13138 132 Emissão Ordem Bancária 3.783 60.614,90 D
17/02/2021 0000 00000 855 BB CP Automatico S P 70 60.614,90C 0,00 C
28/02/2021 0000 00000 999 SALDO 0,00 €
OBSERVAÇÕES :

 

Transação efetuada com sucesso por: JB599661 JOSE F CHAGAS.

Serviço de Atendimento ao Consumidor - SAC 0800 729 0722

Ouvidoria BB 0800 729 5678

Para deficientes auditivos 0800 729 0088
G3331908141090341
19/05/2021 08:19:31

Cliente - Conta atual

 

Agência 1618-7
Conta corrente 13595-X PB FES INVESTIMENTO SUS
Período do extrato 11/2020

 

Lançamentos
Dtbalancete Dt.movimento Ag.origem Lote Histórico Documento  ValorR$ Saldo
29/10/2020 0000 00000 000 Saldo Anterior 0,00 C
30/11/2020 0000 00000 000SALDO 0,00 C

 

 

Transação efetuada com sucesso por: JB599661 JOSE F CHAGAS.

Serviço de Atendimento ao Consumidor - SAC 0800 729 0722 Ouvidoria BB 0800 729 5678
Para deficientes auditivos 0800 729 0088
 

Cliente - Conta atual

G3331908141090341
19/05/2021 08:19:26

 

Agência

Conta corrente
Período do extrato

1618-7

13595-X PB FES INVESTIMENTO SUS

10/2020

 

 

 

Lançamentos
Dt. balancete Dt. movimento Ag.origem Lote Histórico Documento Valor R$ Saldo
17/08/2020 0000 00000 000 Saldo Anterior 0,00 C
01/10/2020 01/10/2020 0000 14056 632 Ordem Bancária 3.903.565.000.001 4.258.954,00 C
01/10/2020 01/10/2020 0000 12334 920 Blog Judicial-Bacen Jud 12.009.605.220.201 28.560,00 *
01/10/2020 01/10/2020 0000 12334 920 Blog Judicial-Bacen Jud 12.009.630.470.101 28.560,00 *
01/10/2020 01/10/2020 0000 12334 920 Blog Judicial-Bacen Jud 12.009.634.440.501 34.770,00 *
01/10/2020 01/10/2020 0000 11334 284 Blog Judicial-Bacen Jud 12.009.605.220.201 28.560,00 D
01/10/2020 01/10/2020 0000 11334 284 Blog Judicial-Bacen Jud 12.009.630.470.101 28.560,00 D
01/10/2020 01/10/2020 0000 11334 284 Blog Judicial-Bacen Jud 12.009.634.440.501 34.770,00 D
01/10/2020 01/10/2020 0000 00000 345 BB CP Automatico S P 70 4.167.064,00 D 0,00 C
06/10/2020 06/10/2020 0000 11162 631 Desbl Judicial-Bacen Jud 91.800.001 28.560,00 C
06/10/2020 06/10/2020 0000 11162 631 Desbl Judicial-Bacen Jud 91.810.001 28.560,00 C
06/10/2020 06/10/2020 0000 11162 631 Desbl Judicial-Bacen Jud 91.820.001 34.770,00 C
06/10/2020 06/10/2020 0000 13373 500 Transf Depósito Judicial 12.009.605.220.203 28.560,00 D
06/10/2020 06/10/2020 0000 13373 500 Transf Depósito Judicial 12.009.634.440.507 34.770,00 D
06/10/2020 06/10/2020 0000 00000 345 BB CP Automatico S P 70 28.560,00 D 0,00 C
14/10/2020 14/10/2020 0000 13138 132 Emissão Ordem Bancária 3.698 889.000,00 D
14/10/2020 14/10/2020 0000 00000 855 BB CP Automatico S P 70 889.000,00 C 0,00 C
29/10/2020 29/10/2020 0000 13138 132 Emissão Ordem Bancária 3.709 1.058.400,00 D
29/10/2020 29/10/2020 0000 00000 855 BB CP Automatico S P 70 1.058.400,00 C 0,00 C
31/10/2020 0000 00000 855SALDO 0,00 C
OBSERVAÇÕES :
Transação efetuada com sucesso por: JB599661 JOSE F CHAGAS.
Serviço de Atendimento ao Consumidor - SAC 0800 729 0722 Ouvidoria BB 0800 729 5678

Para deficientes auditivos 0800 729 0088
G3331908141090341
19/05/2021 08:19:53

Cliente - Conta atual

 

Agência 1618-7
Conta corrente 13595-X PB FES INVESTIMENTO SUS
Período do extrato 03/2021

 

Lançamentos
Dtbalancete Dt.movimento Ag.origem Lote Histórico Documento  ValorR$ Saldo
17/02/2021 0000 00000 000 Saldo Anterior 0,00 C
31/03/2021 0000 00000 000SALDO 0,00 C

 

 

Transação efetuada com sucesso por: JB599661 JOSE F CHAGAS.

Serviço de Atendimento ao Consumidor - SAC 0800 729 0722 Ouvidoria BB 0800 729 5678
Para deficientes auditivos 0800 729 0088
G3331908141090341
19/05/2021 08:19:09

 

Cliente - Conta atual

 

Agência 1618-7
Conta corrente 13595-X PB FES INVESTIMENTO SUS
Período do extrato 08/2020

 

Lançamentos

Dt balancete Dt. movimento Ag. origem Lote Histórico Documento. Valor R$ Saldo
24/07/2020 0000 00000 000 Saldo Anterior 0,00 C
03/08/2020 03/08/2020 0000 | 14056 632 Ordem Bancária 2.958.151.000.001 2.285.800,00 C
03/08/2020 03/08/2020 0000 00000 345 BB CP Automatico S P 70 2.285.800,00 D 0,00 C
17/08/2020 17/08/2020 0000 14056 632 Ordem Bancária 3.216.850.000.001 1.795.652,00 C
17/08/2020 17/08/2020 0000 00000 345 BB CP Automatico S P 70 1.795.652,00 D 0,00 C
31/08/2020 0000 00000 345SALDO 0,00 C

 

OBSERVAÇÕES :

 

 

 

Transação efetuada com sucesso por: JB599661 JOSE F CHAGAS.

Serviço de Atendimento ao Consumidor - SAC 0800 729 0722 Ouvidoria BB 0800 729 5678
Para deficientes auditivos 0800 729 0088
- Comes do
PARAÍBA

Governo do Estado

 

RESPOSTA AO OFÍCIO 1047/2021 — CPI DA PANDEMIA

Ao Excelentíssimo Senhor
Senador Omar Aziz
Presidente da CPI da Pandemia

Ofício PGE 074/2021

João Pessoa, 27 de maio de 2021.

Em atenção ao ofício 1047/2021, subscrito pelo senador Omar Aziz, encaminha-se as
informações solicitadas ao Estado da Paraíba, referentes aos requerimentos aprovados no âmbito
da CPI da Pandemia do Senado Federal.

Destaque-se que a resposta foi elaborada em consonância com as diretrizes fixadas na
Nota Técnica elaborada pelo Colégio Nacional do Procuradores Gerais do Estados e do
Distrito Federal - CONPEG, bem como da Nota Técnica da Consultoria Legislativa do Senado,
datada de 10 de maio do ano em curso, documentos que acompanharam o OFÍCIO Nº 48/2021,
encaminhado pelo Fórum dos Governadores ao Presidente da CPI, senador Omar Aziz, e que
também integram os anexos desta resposta.

a) Todas as publicações no diário oficial dos decretos que reconhecem estado de calamidade

pública em razão da pandemia provocada pelo coronavírus SARS-COV-2;

No link abaixo estão publicados todos os decretos que reconhecem o estado de calamidade

pública em razão da pandemia provocada pelo coronavírus SARS-COV-2.
Legislação COVID-19 — Governo da Paraíba (paraiba.pb.gov.br)

b) Evolução da folha de pagamento por função de governo (obedecendo à classificação
atualizada da Portaria MPOG nº 42 de 14.04.1999), iniciando a série histórica em março de

2020 e finalizando na competência de março de 2021;

Secretaria de Estado da Saúde
Av. Dom Pedro II, 1826 - Torre. João Pessoa- PB | (83) 3211.9000
wwnw.paraiba.pb.gov.br
G6s
Les Édeo
PARAÍBA

Governo do Estado

 

EVOLUÇÃO DESPESAS PESSOAL POR FUNÇÃO - 2020
Abr Tm

 

 

 

 

 

 

 

 

 

 

 

 

 

 

 

 

 

 

 

 

 

 

 

 

 

 

 

 

 

Sema EEESSASUESS | EIOGSL 96000] 6251205025] SESSIGHMAZ7 GI2SA2BEU/ SOCE7 VEOH | GHOBI455,06]| AE EISUSLAI [ 0,0200206 600116426 570026277 | arm m

aa

EVOLUÇÃO DESPESAS PESSOAL POR FUNÇÃO - 2021

 

 

 

 

 

 

 

 

 

 

 

 

 

 

 

 

 

 

 

 

 

 

 

 

 

 

 

 

 

 

 

 

 

FUNC NOMENCLATURA Jan Fev Mar Abr

oi LEGISLATIVA 32.029.026,18| 30.087.584,99] 25.178.655,59] 25.133.149,87
[0 JUDICIARIA 49.314.379,70| 52.771.046,49] 48.126.825,98] 47.859.128,23
03 ESSENCIAL À JUSTIÇA 28.076.628,64] 20.533.615,06] 22.001.777,52] 21.495.169,78|
04 ADMINISTRAÇÃO 33.972.115,52] 32.138.008,74] 31.148.405,67] 31.132.671,82
06 SEGURANÇA PUBLICA 113.034.571,75| 97.651.864,65| 94.192.662,99] 90.347.184,14]
08 ASSISTÊNCIA SOCIAL 5.972.132,33] 6.380.106,25) 3.983.142,98] 7.550.404,59
09 PREVIDÊNCIA SOCIAL 171.932.676,48| 148.943.222,47|  147.867.190,63] 152.356.257,62
10 SAÚDE 87.407.014,67| 84.252.504,96| 104.041.130,61] 63.779.242,79]
12 EDUCACAO 199.313.304,38| 148.921.250,48| 151.507.223,16] 157.454.019,42
13 CULTURA 699.367,37] 1.063.519,28] 767.003,22] 731.650,31
14 DIREITOS DA CIDADANIA 17.243.405,55| 13.395.747,64] 13.623.914,37] 13.365.949,48)
15 URBANISMO 2.426.247,25 287.940,80] 3.287.330,27] 1.704.602,83
r 16 HABITAÇÃO 1.151.610,46] 1.398.705,81 1.150.245,08] 1.170.545,28)
18 GESTÃO AMBIENTAL 696.596,24, 598.775,06) 586.502,30] 577.296,73]
19 CIÊNCIA E TECNOLOGIA 1.169.107,71] 1.686.462,81, 1.839.785,17] 1.637.439,72
20 AGRICULTURA 15.202.776,21| 16.662.459,76] 13.628.052,72] 13.637.7/9,35
22 INDÚSTRIA 798.721,99 782.470,40] 649.779,58] 647.321,66)
23 COMÉRCIO E SERVIÇOS 1.552.233,18] 1.265.053,33] 1.256.911,56] 1.281.946,25)
24 COMUNICAÇÕES 1.595.18831] 1.183.284,25 1.223.750,39] 1.209.289,41
25 ENERGIA 153.309,97 121.575,35) 115.819,35] 125.367,92]
26 TRANSPORTE 3.796.926,57] 3.997.014,05 3.910.401,35] 3.801.090,53
27 DESPORTO E LAZER 258.358,55] 186.392,32) 184.232,82] 199, 134,33]
28 ENCARGOS ESPECIAIS 3.852.237,15] 4.002.670,27 4.345.398,41] 4.019.180,48)
Soma F71.647.986, 16] 668.371.275,22| 675.606.141,72] 641.215.822,54|

 

Secretaria de Estado da Saúde
Av. Dom Pedro II, 1826 - Torre. João Pessoa- PB | (83) 3211.9000
wwnw.paraiba.pb.gov.br
66s
 

Les Édeo
PARAÍBA

Governo do Estado

c) Comparação da Folha relativa aos meses assinalados no item (b) com o mesmo período

do ano anterior, informando o crescimento percentual

 

 

 

 

 

 

 

 

 

 

 

 

 

 

 

 

EVOLUÇÃO DESPESAS PESSOAL POR FUNÇÃO - 2020-2021

 

 

 

 

 

 

 

 

 

 

 

 

 

 

 

 

 

 

 

 

 

 

 

 

 

 

 

 

FUNC NOMENCLATURA] Var-Jan20-21 | Jam Var-Fev 20-21] Fev. Var-Mar 20-21 Mar] Var-Nbr 20-21 Abro
or LEGISLATIVA. 26,30%] 32.029.026,18| 23,33%] 30,087.554,99] -25,7006|  25.178.655,59] 2,80%) 25.133.149,57]
oz [uDiciaria, 1,13%|  49.314.379,70] 11,76%] 52.771.046,49] -4,69%|  d6.125.525,96] 1,30%| 7.059.128,23]
nm |REMGNA | asorscas,os 20533.615,06 ser 7725] zm455469,70
|usTiÇA E 5,96% E -totse| AT 6,725) ri
04 |aomiNisTRAÇÃO 29,87%] 3597211559 5,556] 32155.008,4] 11,34%) 31145.205,07] 12,76%] SLISZG7LH
r SEGURANÇA
[o | 113.03457175 97.651.864,65] 34.152.562,99 30.347.184,14]
puBtica 18,39% -26,3184 15,856 25,575
ASSISTÊNCIA E :
o [Ss RE RT RR RR Re
PREVIDÊNCIA
ns 222,47] a7.867. 2.38
a2 EDUCACAO 5,87% | 199.313.304,38] 1,64%] 148.981.250,48] 2,66%] 151.507.223,16] 6,585] 157454,019,42]
2 CULTURA SLIS%| 699.367,37] 48,72%] 1.053.519,28] 26,04%] 767.003,29] E
Direiros DA
4 17:243.405,55 19.395.747,64] 12.623.914,27] =| 19:385.549,08]
ciDaDania 8,26% 17,9684 29,7854 25,3154
15 URBANISMO 24,49%] 2.426.247,25 84,69%] 287.940,20] 83,715] 3.287.350,27] 295%] 1.704.602,53]
1 HABITAÇÃO 10,806] LISL.G10,46 “21,249 1.398.705,81 37,62 1.150.245,08] 17,25%| 1.170.545,28]
r Gestão
1 696.596,24] 598.775,06] 585.502,30] s7.205,]
AMBIENTAL =13,24%6 24,2486 10,4156| EE
CIÊNCIA E T E
32 ENC GaIA 19,65%] Assam 220%) 168646281 sesme) 183578547] 1510] Mista
E AGRICULTURA 2586] 1520277021 28,70%] 15.052459,00] =1,905%] 1.625.052,77 22956) 13.637,779,35]
2 INpúsTRia Air 79872198 25,50%] 782470,00 120% 645.779,58] 335%] 647.321,56]
[comércio E |
» eviços om 1SS2eAS 1656m| 126505333 sos) 125601159) 158%] 128154525
za [COMUNICAÇÕES 107% 1595388,31] -L46%| 1.183.284,25] 5.76%) 1.223.750,39] 540%) 2.209.299,81]
3 Enencia =32,1456] 153.309,97] -208%| 121.575,35] -397%] 195.819,35] 20,03%] — 225.357,92]
>, [TRANSPORTE 20,82%] — 3.796.526,57] as066| — 2.597.014,05] 8,358] 3.610.401,25] 9,13%) — 2.801.050,53]
DESPORTO E c
ENcaRGos
a 3.852.237,15 4.002.670,27] 4.345.398,41] . 4.019.180,48]
Eserciais -26,65%4 86, 7656 0,2456 Et

 

 

 

 

 

 

 

 

 

 

 

d) Fonte de recursos que custeou o pagamento de cada Folha de Salários contida no item

(b) (evidenciando, principalmente, àquelas pagas com recurs:

 

do governo federal com vinculação específica para combate à pandemia;

G6s

Secretaria de Estado da Saúde
Av. Dom Pedro Il, 1826 - Torre. João Pessoa- PB | (83) 3211.9000

wwnw.paraiba.pb.gov.br

provindos de transferências
Governo do Estado

 

No início da Pandemia, meses de março a junho/2020, foram utilizados recursos do tesouro
estadual, Fonte 110, sem a denominação do gasto Covid. A partir dos recursos transferidos da
Lei Complementar nº 173, de 27 de maio de 2020, registra-se que os plantões COVID foram
vinculados a criação de códigos provisórios (COVID) para garantir o pagamento dos
profissionais oriundos da referida Lei. Sendo assim, a partir da competência do mês de junho
ocorreu a determinação com marcador específico de Folha de Pessoal Covid-19, fonte de recurso

119.

e) Legislações expandidas (leis, decretos, portarias, etc) tratando sobre a concessão de
gratificações extraordinárias, aumento de remuneração, prêmios, auxílios ou quaisquer
tipos de vantagens concedidas a servidores ou contratados pela Administração pela atuação

na pandemia;
Não houve.

f) Discriminação do quantitativo de profissionais estranhos ao quadro de servidores que
foram contratados no período após a expedição do decreto de calamidade pública
(informar o quantitativo por cargo e lotação, a forma de contratação e a fonte de recursos

que remunerou esses profissionais);

Diante da magnitude do avanço da pandemia foram desencadeadas diversas estratégias
com vistas ao enfrentamento da Covid-19, sendo a principal a ampliação de leitos de enfermaria
e Unidade de Terapia Intensiva nas Unidades Hospitalares da Rede Estadual de Serviços de
Saúde. Última atualização do Plano de Contingência Estadual para Infecção Humana pelo

Coronavírus (covid-19), abril 2021, disponível no link

https://paraiba.pb.gov.br/diretas/saude/coronavirus/downloads.

Com isso, para atender a ampliação estrutural e garantir um dimensionamento adequado
às necessidades de saúde da população, a Secretaria de Estado da Saúde em consonância com as
Políticas vigentes para contratação emergencial em meio à pandemia da Covid-19, solicitou a
Secretaria de Estado da Administração a realização de Processos Seletivos Simplificados, por
meio da Escola de Serviço Público do Estado da Paraíba, com a única e exclusiva intenção de
contratar profissionais da área da saúde e de apoio administrativo que atuassem no

enfrentamento da pandemia.

Secretaria de Estado da Saúde
Av. Dom Pedro II, 1826 - Torre. João Pessoa- PB | (83) 3211.9000
wwnw.paraiba.pb.gov.br
G6s
Governo do Estado

 

Salienta-se que as contratações de profissionais para atuação no enfrentamento da
Covid-19 ocorreram por meio dos Processos Seletivos Simplificados, sendo realizados 8 editais
exclusivos para atuação nos Serviços de Referência Covid do estado da Paraíba. O primeiro
Edital de seleção teve inscrição no período de março de 2020, após a publicação do Decreto de

emergência em Saúde Pública.

Diante dos esclarecimentos apresentados informa-se que foram contratados, via Editais
de Seleção Covid, 2.629 (dois mil seiscentos e vinte e nove) profissionais e que as convocações
foram publicadas no Diário Oficial da Paraíba e no Portal da Transparência Covid, estes
profissionais foram direcionados para atuarem nos Serviços de Referência Estadual de
Enfrentamento a pandemia da Covid-19. As convocações e todas as publicações dos Editais de
Seleção podem ser verificados na

página:https://paraiba.pb.gov.br/diretas/saude/coronavirus/transparencia-contratacoes/selecao-pe

ssoa! rvicos-pessoa-juridica.

Em relação às informações das Fontes que custearam o pagamento destes profissionais
contratados exclusivamente para atuar no enfrentamento da Pandemia informa-se que no item
“d” constam os esclarecimentos. Abaixo segue o quadro 01 que apresenta a quantidade por cargo

e função.

Secretaria de Estado da Saúde
Av. Dom Pedro II, 1826 - Torre. João Pessoa- PB | (83) 3211.9000
wwnw.paraiba.pb.gov.br
G6s
 

TYLOL

26
n6
14
m12
12
º
18
24
2629)

325

 

Podes] Essoutid van

 

euH ques op an

 

eigeieno apvdn

 

seitozefeo van

olololo
olololo
ojojofo
ojojofo
olololo
ojojojo
sfo/2/o
sjo/2[4
olololo
ojojolo
ojofofo
ojojofo
ojo/olo
ojo/ojo

23/55 [22[7

 

Inveçao) oefejndoy
aplogas- sas.

o
º
º
10
º
7

 

Sado: VIDNyIIDIA-SAS

2”

 

(svaxzmvaLNo ssa
sasva)

uai ug à Bpuafin

ap apoy ep Joyas - sas

 

º
15

 

 

10
19

107
au

7

 

sado nejssaua pi
euoi$oy putdsoH

º
13
18

 

aujouieo
Iny Jopeuas, jequiod
ap jeuojSoy putdsoH

15

 

 

12
13

128)

 

16
o
E
19
E

512

 

 

 

ONIALNOW
= VNSINO TIA VINVS
TYNOID3Y TVLIASOH

 

oueutey
Uospa jesouag Je
opueuioo op jensoH

15

 

euoom
ojaqunhsopeuos
elunes] à epugiiaa

 

º
2
37

 

sepueuajefezuoo
zm og eres) à
apugfioua ap jeydsoW

Secretaria de Estado da Saúde
wwnwparaiba.pb.gov.br

75
53
13
aa

 

ET
ouguauojo putdsoH

3
aT
16
19

156)

 

99 SvolHITO
Sva TVLIdSOH

 

PARAIBA

Governo do Estado

Demos 4

14
18

13
Av. Dom Pedro II, 1826 - Torre. João Pessoa- PB | (83) 3211.9000

 

Naoym

44/5549

 

Ê

aujauita
Anypueropendag
euojõoy jeytdsoH

 

 

76
7a

 

 

VOvANNEINEOSaa
aSva suo 6

10
AT

 

VOvANNEINDasaa
ESEIRPE

18

 

VOvANNEINEOSaa
ESEIRPE

º
15

 

SvavZITrALHaI Sa
sasva suo «ol

º
10
o
º
o

 

OvôNna

 

QUADRO 01. Número de profissionais contratados para o enfrentamento da Pandemia da Covid-19 por cargo e lotação, período de março de

2020 até abril de 2021.

TOTAL 24

AUXILIAR DE FARMÁCIA
AUXILIAR DE SERVIÇOS

TÉCNICO DE VIGILÂNCIA

Dados da Gerência Administrativa da SES/Pb.

BIOQUÍMICO
BIOMÉDICO
FARMACÊUTICO

MÉDICO EMERGENCISTA

MÉDICO OBSTETRA.

LÉCNICO DE ENFEI

TÉCNICO EM ANÁLISES CLÍNICAS

 

 

 

 

 

 

 

 

 

 

 

 

 

 

 

 

 

 

 

 

 

 

 

 

 

 

 

 

 

 

 

 

 

DESPENSEIRO/AUXILAR DE

COZINHA
TÉCNICO DE LABORATÓRIO |

TÉCNICO EM RADIOLOGIA

INSTITUCIONA! (APOIO)
VIDEOFONISTA

ASSISTENTE SOCIAL
AUXILIAR DE COZINHA
COZINHEIRO
DIGITADOR
ENFERMEIRO
FISIOTERAPEUTA,
FONOAUDIÓLOGO
MAQUEIRO

MEDICO CLÍNICO
MEDICO INTENSIVISTA
MÉDICO INFECTO
NUTRICIONISTA
ODONTOLÓGO
OPERADOR DL
RECEPCIONISTA
SEGURANÇA

Fonte:

66s
Les Édeo
PARAÍBA

Governo do Estado

 

g) Evidenciação da folha de pagamento da Fundação Saúde por tipo de profissional
(enfermeiros, médicos, plantonistas, auxiliares, etc), separando os servidores dos

profissionais contratados, em todo o período assinalado no item (a) deste requerimento

Em atenção a solicitação é pertinente esclarecer que os Editais de Processo Seletivo
Simplificado disponibilizaram vagas nas áreas administrativas e de apoio, logo os cargos de nível
fundamental e básico exigiam experiência profissional em serviços de saúde, para atuarem em

funções administrativas nas Unidades de Referência Covid.

Para conferência, segue o link
https://paraiba.pb. gov.br/diretas/saude/coronavirus/transparencia-contratacoes/selecao-pessoal-e-
servicos-pessoa-juridica, onde estão todos os Editais de Seleção de Pessoal constando as
categorias profissionais disponíveis e os critérios de avaliação profissional (títulos e experiência)

para seleção simplificada.

Dito isto, informa-se que os profissionais que atuam no enfrentamento da Covid-19 estão
discriminados no item “f” e abaixo segue quadro demonstrativo da despesa de pessoal Covid no
período de abril de 2020 a março de 2021.

QUADRO 02. Evolução da Despesa de Pessoal Covid-19 por mês de competência, no
período de abril de 2020 a março de 2021.

 

 

 

 

 

 

 

 

 

 

 

 

 

 

 

 

MÊS VALOR
abr/20 R$ 3.123.174,87
mai/20 R$ 2.456.000,58
jun/20 R$ 1.744.420,99
jul/20 R$ 448.567,49
ago/20 R$ 10.581.801,52
set/20 R$ 12.201.266,35
out/20 R$ 10.867.010,90
nov/20 R$ 10.451.395,34
dez/20 R$ 10.493.589,43
jan/21 R$ 11.666.665,19
fev/21 R$ 12.044.285,42
mar/21 R$ 11.843.689,61

TOTAL GERAL R$ 97.921.867,69

Secretaria de Estado da Saúde
Av. Dom Pedro II, 1826 - Torre. João Pessoa- PB | (83) 3211.9000
wwnw.paraiba.pb.gov.br
G6s
Governo do Estado

 

h) Planilha com os valores enviados via transferência de recursos para pessoas jurídicas de
direito privado sem fins lucrativos que tenham tido atuação na pandemia, principalmente
àquelas com atuação na área da saúde, informando a fonte de recursos dos pagamentos, os

contratos, aditivos e as respectivas prestações de contas.
Não houve.

Sendo essas as informações a serem prestadas, ficamos à disposição para prestar

outros esclarecimentos que se façam necessários.

Atenciosamente,

 

Procurador-Geral do Estado da Paraíba

Secretaria de Estado da Saúde
Av. Dom Pedro II, 1826 - Torre. João Pessoa- PB | (83) 3211.9000
wwnw.paraiba.pb.gov.br
 

Cliente - Conta atual

G3382009133412011
20/05/2021 09:17:26

 

Agência 1618-7
Conta corrente

Período do extrato Mês atual

Lançamentos

14131-3 SECRETARIA E D HUMANO

 

Dt balancete Dt. movimento Ag. origem Lote Histórico

Documento Valor R$ Saldo

 

23/04/2021 0000 00000 000 Saldo Anterior 15.155.773,19C
07/05/2021 0000 13138 132 Emissão Ordem Bancária 2.686 1.149.473,19 D 14.006.300,00 C
13/05/2021 0000 13138 132 Emissão Ordem Bancária 2.687 1.344.000,00 D 12.662.300,00 C
20/05/2021 0000 00000999 SALDO 12.662.300,00 C
Saldo 12.662.300,00 €
Juros * 0,00
Data de Debito de Juros 31/05/2021
IOF * 0,00
Data de Debito de IOF 01/06/2021

 

 

 

Transação efetuada com sucesso por: JD194977 JORDANIO DOS SANTOS OLIVEIRA.

Serviço de Atendimento ao Consumidor - SAC 0800 729 0722

Ouvidoria BB 0800 729 5678

Para deficientes auditivos 0800 729 0088
ENTRADAS DE MATERIAIS DE JANEIRO A MAIO

Valores em R$ 1,00

20/05/2021 20:56:12

 

SECRETARIA DE ESTADO DA SAUDE
SES - LABORATORIO CENTRAL

Entrada Nº
2021000064 06/01/2021
DOAÇÃO -

ENTRADA - ORG
EXTERNO

00.394.544/0008-51

DT. Entrada Fornecedor / Desc. Empenho

MINISTERIO DA SAUDE

Data NF
11/12/2020

Nº Nota Fiscal
000201221

Valor Entrada
2.750,00

Empenho Fonte

 

2021000066 06/01/2021

DOAÇÃO -
ENTRADA - ORG
EXTERNO

00.394.544/0008-51

MINISTERIO DA SAUDE

14/12/2020

000210120

4.400,00

 

2021000086 06/01/2021

DOAÇÃO -
ENTRADA - ORG
EXTERNO

00.394.544/0008-51

MINISTERIO DA SAUDE

14/12/2020

000210119

8.974,18

 

2021000920 22/01/2021

DOAÇÃO -
ENTRADA - ORG
EXTERNO

00.394.544/0008-51

MINISTERIO DA SAUDE

06/01/2021

000338127

43.290,95

 

2021001293 01/02/2021 00.394.544/0008-51

DOAÇÃO -
ENTRADA - ORG
EXTERNO

MINISTERIO DA SAUDE

18/01/2021

002101187

961,70

 

2021001655 08/02/2021

DOAÇÃO -
ENTRADA - ORG
EXTERNO

00.394.544/0008-51

MINISTERIO DA SAUDE

06/01/2021

000338129

2.134.393,11

 

2021001656 08/02/2021

DOAÇÃO -
ENTRADA - ORG
EXTERNO

00.394.544/0008-51

MINISTERIO DA SAUDE

18/01/2021

002101187

5.500,00

 

Página: 1
ENTRADAS DE MATERIAIS DE JANEIRO A MAIO

Valores em R$ 1,00

20/05/2021 20:56:12

 

2021001662

DOAÇÃO -
ENTRADA - ORG
EXTERNO

08/02/2021

00.394.544/0008-51

MINISTERIO DA SAUDE

06/01/2021

000338128

18.888,68

 

2021002093

DOAÇÃO -
ENTRADA - ORG
EXTERNO

16/02/2021

00.394.544/0008-51

MINISTERIO DA SAUDE

02/02/2021

000340460

13.951,85

 

2021002096

DOAÇÃO -
ENTRADA - ORG
EXTERNO

16/02/2021

00.394.544/0008-51

MINISTERIO DA SAUDE

02/02/2021

000340461

24.482,88

 

2021002209

DOAÇÃO -
ENTRADA - ORG
EXTERNO

17/02/2021

00.394.544/0008-51

MINISTERIO DA SAUDE

17/12/2020

000336842

8.911,61

 

2021003193

DOAÇÃO -
ENTRADA - ORG
EXTERNO

02/03/2021

00.394.544/0008-51

MINISTERIO DA SAUDE

19/02/2021

000000159

16.500,00

 

2021003201

DOAÇÃO -
ENTRADA - ORG
EXTERNO

02/03/2021

00.394.544/0008-51

MINISTERIO DA SAUDE

20/02/2021

000211160

63.300,00

 

2021005790

DOAÇÃO -
ENTRADA - ORG
EXTERNO

25/03/2021

00.394.544/0008-51

MINISTERIO DA SAUDE

09/03/2021

000344363

8.999,45

 

2021005798

DOAÇÃO -
ENTRADA - ORG
EXTERNO

25/03/2021

00.394.544/0008-51

MINISTERIO DA SAUDE

11/03/2021

000955683

51.528,00

 

Página: 2
ENTRADAS DE MATERIAIS DE JANEIRO A MAIO

Valores em R$ 1,00

20/05/2021 20:56:12

 

2021005825

DOAÇÃO -
ENTRADA - ORG
EXTERNO

2021005843
DOAÇÃO -

ENTRADA - ORG
EXTERNO

2021005865
DOAÇÃO -

ENTRADA - ORG
EXTERNO

2021005938
DOAÇÃO -

ENTRADA - ORG
EXTERNO

2021005945
DOAÇÃO -

ENTRADA - ORG
EXTERNO

25/03/2021

25/03/2021

25/03/2021

26/03/2021

26/03/2021

00.394.544/0008-51

00.394.544/0008-51

00.394.544/0008-51

00.394.544/0008-51

00.394.544/0008-51

MINISTERIO DA SAUDE

MINISTERIO DA SAUDE

MINISTERIO DA SAUDE

MINISTERIO DA SAUDE

MINISTERIO DA SAUDE

01/03/2021

02/03/2021

19/02/2021

11/02/2021

11/02/2021

000343505

000343674

000342259

000210222

000210221

1.705.726,20

16.185,31

8.907,98

6.600,00

9.675,22

 

Página: 3
ENTRADAS DE MATERIAIS DE JANEIRO A MAIO

Valores em R$ 1,00

20/05/2021 20:56:12

 

2021005952

DOAÇÃO -
ENTRADA - ORG
EXTERNO

26/03/2021

00.394.544/0008-51

MINISTERIO DA SAUDE

15/03/2021

000210318

11.262,16

 

2021006270

DOAÇÃO -
ENTRADA - ORG
EXTERNO

29/03/2021

00.394.544/0008-51

MINISTERIO DA SAUDE

11/03/2021

000021031

5.500,00

 

2021006628

DOAÇÃO -
ENTRADA - ORG
EXTERNO

31/03/2021

00.394.544/0008-51

MINISTERIO DA SAUDE

18/03/2021

000345150

34.020,00

 

2021006660

DOAÇÃO -
ENTRADA - ORG
EXTERNO

31/03/2021

00.394.544/0008-51

MINISTERIO DA SAUDE

18/02/2021

000312207

612,00

 

2021006665

DOAÇÃO -
ENTRADA - ORG
EXTERNO

31/03/2021

00.394.544/0008-51

MINISTERIO DA SAUDE

08/02/2021

000338500

9.750,95

 

2021006669

DOAÇÃO -
ENTRADA - ORG
EXTERNO

31/03/2021

00.394.544/0008-51

MINISTERIO DA SAUDE

08/02/2021

000340945

13.673,80

 

2021008428

DOAÇÃO -
ENTRADA - ORG
EXTERNO

19/04/2021

00.394.544/0008-51

MINISTERIO DA SAUDE

08/04/2021

000347576

14.999,08

 

2021008467

DOAÇÃO -
ENTRADA - ORG
EXTERNO

19/04/2021

00.394.544/0008-51

MINISTERIO DA SAUDE

26/03/2021

000346330

12.012,50

 

Página: 4
ENTRADAS DE MATERIAIS DE JANEIRO A MAIO

Valores em R$ 1,00

20/05/2021 20:56:12

 

2021008685

DOAÇÃO -
ENTRADA - ORG
EXTERNO

20/04/2021

00.394.544/0008-51

MINISTERIO DA SAUDE

12/04/2021

000348085

2.928,00

 

2021008697

DOAÇÃO -
ENTRADA - ORG
EXTERNO

20/04/2021

00.394.544/0008-51

MINISTERIO DA SAUDE

02/03/2021

000343673

27.550,63

 

2021008699

DOAÇÃO -
ENTRADA - ORG
EXTERNO

20/04/2021

00.394.544/0008-51

MINISTERIO DA SAUDE

12/04/2021

000348057

11.340,00

 

2021008707

DOAÇÃO -
ENTRADA - ORG
EXTERNO

20/04/2021

00.394.544/0008-51

MINISTERIO DA SAUDE

29/03/2021

000346428

653,55

 

2021008717

DOAÇÃO -
ENTRADA - ORG
EXTERNO

20/04/2021

00.394.544/0008-51

MINISTERIO DA SAUDE

31/03/2021

000346871

36.896,79

 

2021008907

DOAÇÃO -
ENTRADA - ORG
EXTERNO

21/04/2021

00.394.544/0008-51

MINISTERIO DA SAUDE

22/01/2021

000339662

3.109,60

 

2021009084

DOAÇÃO -
ENTRADA - ORG
EXTERNO

22/04/2021

00.394.544/0008-51

MINISTERIO DA SAUDE

06/03/2021

000000191

10.943,40

 

2021 3

DOAÇÃO -
ENTRADA - ORG
EXTERNO

22/04/2021

00.394.544/0008-51

MINISTERIO DA SAUDE

07/03/2021

000212484

37.440,00

 

Página: 5
ENTRADAS DE MATERIAIS DE JANEIRO A MAIO

Valores em R$ 1,00

20/05/2021 20:56:12

 

2021009127 22/04/2021 00.394.544/0008-51 MINISTERIO DA SAUDE

DOAÇÃO -
ENTRADA - ORG
EXTERNO

2021009128 22/04/2021 00.394.544/0008-51 MINISTERIO DA SAUDE
DOAÇÃO -

ENTRADA - ORG
EXTERNO

2021009130 22/04/2021 00.394.544/0008-51 MINISTERIO DA SAUDE
DOAÇÃO -

ENTRADA - ORG
EXTERNO

2021009131 22/04/2021 00.394.544/0008-51 MINISTERIO DA SAUDE
DOAÇÃO -

ENTRADA - ORG
EXTERNO

27/03/2021

28/03/2021

16/04/2021

17/04/2021

000000272

000214366

000216001

000000342

22.112,75

21.100,00

87.000,00

11.586,30

Página: 6
ENTRADAS DE MATERIAIS DE JANEIRO A MAIO

Valores em R$ 1,00

20/05/2021 20:56:12

 

2021009170

DOAÇÃO -
ENTRADA - ORG
EXTERNO

22/04/2021

00.394.544/0008-51

MINISTERIO DA SAUDE

08/03/2021

020210968

390,00

 

2021009171

DOAÇÃO -
ENTRADA - ORG
EXTERNO

22/04/2021

00.394.544/0008-51

MINISTERIO DA SAUDE

30/12/2020

000337907

7.006,57

 

2021009174

DOAÇÃO -
ENTRADA - ORG
EXTERNO

22/04/2021

00.394.544/0008-51

MINISTERIO DA SAUDE

06/01/2021

000338130

310.140,00

 

2021009205

DOAÇÃO -
ENTRADA - ORG
EXTERNO

23/04/2021

00.394.544/0008-51

MINISTERIO DA SAUDE

22/04/2021

416042235

2.024,46

 

2021009230

DOAÇÃO -
ENTRADA - ORG
EXTERNO

23/04/2021

00.394.544/0008-51

MINISTERIO DA SAUDE

31/03/2021

000346870

1.017.860,01

 

2021009268

DOAÇÃO -
ENTRADA - ORG
EXTERNO

23/04/2021

00.394.544/0008-51

MINISTERIO DA SAUDE

09/12/2020

000002613

499.986,00

 

2021009805

DOAÇÃO -
ENTRADA - ORG
EXTERNO

28/04/2021

00.394.544/0008-51

MINISTERIO DA SAUDE

15/04/2021

512042023

1.100,00

 

2021010058

DOAÇÃO -
ENTRADA - ORG
EXTERNO

29/04/2021

00.394.544/0008-51

MINISTERIO DA SAUDE

23/04/2021

000349421

1.535.153,58

 

Página: 7
ENTRADAS DE MATERIAIS DE JANEIRO A MAIO

Valores em R$ 1,00

20/05/2021 20:56:12

 

2021011077

DOAÇÃO -
ENTRADA - ORG
EXTERNO

2021011787
DOAÇÃO -

ENTRADA - ORG
EXTERNO

11/05/2021

17/05/2021

00.394.544/0008-51 MINISTERIO DA SAUDE

00.394.544/0008-51 MINISTERIO DA SAUDE

04/05/2021

07/05/2021

000350225

000351030

26.658,72

17.998,90

7.946.736,27

Página: 8
 

ENTRADAS DE MATERIAIS DE JANEIRO A MAIO

SES - NUCLEO DE IMUNIZAÇÃO - CENTRAL

Entrada Nº
2021001097
DOAÇÃO -

ENTRADA - ORG
EXTERNO

DT. Entrada
26/01/2021

Fornecedor / Desc. Empenho
00.394.544/0008-51 MINISTERIO DA SAUDE

Data NF
22/01/2021

Nº Nota Fiscal
000339696

Valores em R$ 1,00

20/05/2021 20:56:12

Empenho Fonte Valor Entrada
83.220,82

83.220,82

 
Er

f É ENTRADAS DE MATERIAIS DE JANEIRO A MAIO

 

SES - CENTRO ESPECIALIZADO DE DISPENSAÇÃO MED. EXCEPCIONAIS

Entrada Nº
2021000069
DOAÇÃO -

ENTRADA - ORG
EXTERNO

DT. Entrada

06/01/2021

Fornecedor / Desc. Empenho

10.877.926/0001-13 LABORATORIO FAR PE GOV MIGUEL ARRAES
SA

Data NF
16/12/2020

 

2021000078

DOAÇÃO -
ENTRADA - ORG
EXTERNO

06/01/2021

00.394.544/0008-51 MINISTERIO DA SAUDE

01/01/0001

 

2021000080

DOAÇÃO -
ENTRADA - ORG
EXTERNO

06/01/2021

10.877.926/0001-13 LABORATORIO FAR PE GOV MIGUEL ARRAES

16/12/2020

 

2021000109

DOAÇÃO -
ENTRADA - ORG
EXTERNO

05/01/2021

00.394.544/0008-51 MINISTERIO DA SAUDE

01/01/0001

 

2021000112

DOAÇÃO -
ENTRADA - ORG
EXTERNO

06/01/2021

61072393003906 WYETH INDUSTRIA FARMACEUTICA LTDA

02/01/2021

 

2021000113

DOAÇÃO -
ENTRADA - ORG
EXTERNO

06/01/2021

61072393003906 WYETH INDUSTRIA FARMACEUTICA LTDA

02/01/2021

 

2021000117

DOAÇÃO -
ENTRADA - ORG
EXTERNO

05/01/2021

00.394.544/0008-51 MINISTERIO DA SAUDE

01/01/0001

 

2021000206

DOAÇÃO -
ENTRADA - ORG
EXTERNO

07/01/2021

64.711.500/0003-86 UCB BIOPHARMA S.A.

05/01/2021

 

Valores em R$ 1,00

20/05/2021 20:56:12

Nº Nota Fiscal Valor Entrada
ENTRADAS DE MATERIAIS DE JANEIRO A MAIO

Valores em R$ 1,00

20/05/2021 20:56:12

 

2021000221

DOAÇÃO -
ENTRADA - ORG
EXTERNO

05/01/2021

00.394.544/0008-51 MINISTERIO DA SAUDE

01/01/0001

6.322,86

 

2021000377

DOAÇÃO -
ENTRADA - ORG
EXTERNO

08/01/2021

00.394.544/0008-51 MINISTERIO DA SAUDE

01/01/0001

51.351,30

 

2021000381

DOAÇÃO -
ENTRADA - ORG
EXTERNO

08/01/2021

00.394.544/0008-51 MINISTERIO DA SAUDE

01/01/0001

29.728,16

 

2021000433

DOAÇÃO -
ENTRADA - ORG
EXTERNO

08/01/2021

00.394.544/0008-51 MINISTERIO DA SAUDE

01/01/0001

299.821,15

 

2021000480

DOAÇÃO -
ENTRADA - ORG
EXTERNO

08/01/2021

00394544000851 MINISTÉRIO DA SAÚDE (MS)

01/01/0001

28.040,82

 

2021000523

DOAÇÃO -
ENTRADA - ORG
EXTERNO

14/01/2021

00.394.544/0008-51 MINISTERIO DA SAUDE

01/01/0001

1.032.193,95

 

2021000530

DOAÇÃO -
ENTRADA - ORG
EXTERNO

13/01/2021

00.394.544/0008-51 MINISTERIO DA SAUDE

01/01/0001

249.625,21

 

2021000699

DOAÇÃO -
ENTRADA - ORG
EXTERNO

19/01/2021

00394544000851 MINISTÉRIO DA SAÚDE (MS)

01/01/0001

7.160,00

 

Página: 11
Er

f É ENTRADAS DE MATERIAIS DE JANEIRO A MAIO

Valores em R$ 1,00

20/05/2021 20:56:12

 

2021000932

DOAÇÃO -
ENTRADA - ORG
EXTERNO

2021000933
DOAÇÃO -

ENTRADA - ORG
EXTERNO

21/01/2021

21/01/2021

10.877.926/0001-13 LABORATORIO FAR PE GOV MIGUEL ARRAES

10.877.926/0001-13 LABORATORIO FAR PE GOV MIGUEL ARRAES
SA

07/01/2021

07/01/2021

000096479

000096420

128.535,60

204.651,60

 

2021000934

DOAÇÃO -
ENTRADA - ORG
EXTERNO

2021000935
DOAÇÃO -

ENTRADA - ORG
EXTERNO

21/01/2021

21/01/2021

10.877.926/0001-13 LABORATORIO FAR PE GOV MIGUEL ARRAES
SA

10.877.926/0001-13 LABORATORIO FAR PE GOV MIGUEL ARRAES

07/01/2021

07/01/2021

000096536

000096360

134.467,20

39.163,26

 

Página: 12
ENTRADAS DE MATERIAIS DE JANEIRO A MAIO

Valores em R$ 1,00

20/05/2021 20:56:12

 

2021001029

DOAÇÃO -
ENTRADA - ORG
EXTERNO

25/01/2021

00.394.544/0008-51 MINISTERIO DA SAUDE

01/01/0001

34.831,79

 

2021001036

DOAÇÃO -
ENTRADA - ORG
EXTERNO

22/01/2021

00.394.544/0008-51 MINISTERIO DA SAUDE

01/01/0001

83.664,02

 

2021001043

DOAÇÃO -
ENTRADA - ORG
EXTERNO

25/01/2021

33.781.055/0049-80 FUNDAÇÃO OSWALDO CRUZ/INSTITUTO DE
TECNOLOGIA EM FARMACOS

11/01/2021

000059277

19.435,95

 

2021001101

DOAÇÃO -
ENTRADA - ORG
EXTERNO

26/01/2021

00394544000851 MINISTÉRIO DA SAÚDE (MS)

01/01/0001

6.748,00

 

2021001301

DOAÇÃO -
ENTRADA - ORG
EXTERNO

01/02/2021

00394544000851 MINISTÉRIO DA SAÚDE (MS)

27/01/2021

000059358

30.400,00

 

2021001339

DOAÇÃO -
ENTRADA - ORG
EXTERNO

28/01/2021

33.781.055/0049-80 FUNDAÇÃO OSWALDO CRUZ/INSTITUTO DE
TECNOLOGIA EM FARMACOS

21/01/2021

000059321

8.242,00

 

2021001394

DOAÇÃO -
ENTRADA - ORG
EXTERNO

02/02/2021

10266175000107 LABORATÓRIO QUÍMICO FARMACÉUTICO DO
EXERCITO

28/01/2021

000000043

8.860,80

 

2021001396

DOAÇÃO -
ENTRADA - ORG
EXTERNO

03/02/2021

00394544000851 MINISTÉRIO DA SAÚDE (MS)

26/01/2021

000339944

186.682,25

 

Página: 13
Er

f É ENTRADAS DE MATERIAIS DE JANEIRO A MAIO

Valores em R$ 1,00

20/05/2021 20:56:12

 

2021001579

DOAÇÃO -
ENTRADA - ORG
EXTERNO

08/02/2021

10266175000107 LABORATÓRIO QUÍMICO FARMACÊUTICO DO
EXERCITO

29/01/2021

000001921

226.176,00

 

2021001710

DOAÇÃO -
ENTRADA - ORG
EXTERNO

09/02/2021

10.877.926/0001-13 LABORATORIO FAR PE GOV MIGUEL ARRAES
SA

28/01/2021

000096786

2.688,00

 

2021001887

DOAÇÃO -
ENTRADA - ORG
EXTERNO

12/02/2021

00.394.544/0008-51 MINISTERIO DA SAUDE

01/01/0001

373,38

 

2021002102

DOAÇÃO -
ENTRADA - ORG
EXTERNO

16/02/2021

10266175000107 LABORATÓRIO QUÍMICO FARMACÉUTICO DO
EXERCITO

10/02/2021

000000089

12.400,00

 

2021002253

DOAÇÃO -
ENTRADA - ORG
EXTERNO

18/02/2021

00.394.544/0008-51 MINISTERIO DA SAUDE

01/01/0001

19.595,58

 

2021002293

DOAÇÃO -
ENTRADA - ORG
EXTERNO

18/02/2021

00.394.544/0008-51 MINISTERIO DA SAUDE

01/01/0001

283.052,85

 

2021002360

DOAÇÃO -
ENTRADA - ORG
EXTERNO

18/02/2021

11.376.952/0001-20 LABORATÓRIO FARMACÊUTICO DA MARINHA

29/01/2021

000053737

267.844,80

 

2021002715

DOAÇÃO -
ENTRADA - ORG
EXTERNO

24/02/2021

00.394.544/0008-51 MINISTERIO DA SAUDE

01/01/0001

3.498,33

 

Página: 14
ENTRADAS DE MATERIAIS DE JANEIRO A MAIO

Valores em R$ 1,00

20/05/2021 20:56:12

 

2021002718 24/02/2021 00.394.544/0008-51 MINISTERIO DA SAUDE

DOAÇÃO -
ENTRADA - ORG
EXTERNO

2021002721 24/02/2021 00.394.544/0008-51 MINISTERIO DA SAUDE
DOAÇÃO -

ENTRADA - ORG
EXTERNO

2021002882 25/02/2021 00.394.544/0008-51 MINISTERIO DA SAUDE
DOAÇÃO -

ENTRADA - ORG
EXTERNO

2021002885 25/02/2021 00.394.544/0008-51 MINISTERIO DA SAUDE
DOAÇÃO -

ENTRADA - ORG
EXTERNO

01/01/0001

01/01/0001

01/01/0001

01/01/0001

57.502,36

13.417.396,51

53.581,80

5.634,17

 

Página: 15
ENTRADAS DE MATERIAIS DE JANEIRO A MAIO

Valores em R$ 1,00

20/05/2021 20:56:12

 

2021002887

DOAÇÃO -
ENTRADA - ORG
EXTERNO

25/02/2021

00.394.544/0008-51 MINISTERIO DA SAUDE

01/01/0001

8.243,02

 

2021002888

DOAÇÃO -
ENTRADA - ORG
EXTERNO

25/02/2021

00.394.544/0008-51 MINISTERIO DA SAUDE

01/01/0001

3.315,58

 

2021003050

DOAÇÃO -
ENTRADA - ORG
EXTERNO

26/02/2021

00.394.544/0008-51 MINISTERIO DA SAUDE

01/01/0001

667.307,32

 

2021003271

DOAÇÃO -
ENTRADA - ORG
EXTERNO

02/03/2021

00394544000851 MINISTÉRIO DA SAÚDE (MS)

01/01/0001

349.558,67

 

2021003811

DOAÇÃO -
ENTRADA - ORG
EXTERNO

08/03/2021

33.781.055/0049-80 FUNDAÇÃO OSWALDO CRUZ/INSTITUTO DE
TECNOLOGIA EM FARMACOS

23/02/2021

000059506

17.100,00

 

2021003813

DOAÇÃO -
ENTRADA - ORG
EXTERNO

08/03/2021

33.781.055/0049-80 FUNDAÇÃO OSWALDO CRUZ/INSTITUTO DE
TECNOLOGIA EM FARMACOS

25/02/2021

000059533

50.825,00

 

2021003970

DOAÇÃO -
ENTRADA - ORG
EXTERNO

09/03/2021

10266175000107 LABORATÓRIO QUÍMICO FARMACÉUTICO DO
EXERCITO

03/03/2021

000000111

86.800,00

 

2021004323

DOAÇÃO -
ENTRADA - ORG
EXTERNO

11/03/2021

11.376.952/0001-20 LABORATÓRIO FARMACÊUTICO DA MARINHA

24/02/2021

000053802

33.480,00

 

Página: 16
ENTRADAS DE MATERIAIS DE JANEIRO A MAIO

Valores em R$ 1,00

20/05/2021 20:56:12

 

2021005223

DOAÇÃO -
ENTRADA - ORG
EXTERNO

22/03/2021

00394544000851

MINISTÉRIO DA SAÚDE (MS)

01/01/0001

2.074,21

 

2021005228

DOAÇÃO -
ENTRADA - ORG
EXTERNO

18/03/2021

00394544000851

MINISTÉRIO DA SAÚDE (MS)

01/01/0001

48.627,80

 

2021005584

DOAÇÃO -
ENTRADA - ORG
EXTERNO

24/03/2021

00394544000851

MINISTÉRIO DA SAÚDE (MS)

01/01/0001

18.365,40

 

2021005585

DOAÇÃO -
ENTRADA - ORG
EXTERNO

24/03/2021

00394544000851

MINISTÉRIO DA SAÚDE (MS)

01/01/0001

45.633,44

 

2021005592

DOAÇÃO -
ENTRADA - ORG
EXTERNO

24/03/2021

00394544000851

MINISTÉRIO DA SAÚDE (MS)

01/01/0001

163.523,27

 

2021005927

DOAÇÃO -
ENTRADA - ORG
EXTERNO

25/03/2021

00394544000851

MINISTÉRIO DA SAÚDE (MS)

01/01/0001

6.650.020,15

 

2021006106

DOAÇÃO -
ENTRADA - ORG
EXTERNO

26/03/2021

00394544000851

MINISTÉRIO DA SAÚDE (MS)

01/01/0001

292.572,97

 

2021006113

DOAÇÃO -
ENTRADA - ORG
EXTERNO

26/03/2021

11.376.952/0001-20 LABORATÓRIO FARMACÊUTICO DA MARINHA

02/03/2021

000053832

32.347,20

 

Página: 17
ENTRADAS DE MATERIAIS DE JANEIRO A MAIO

Valores em R$ 1,00

20/05/2021 20:56:12

 

2021006124 26/03/2021 00394544000851 MINISTÉRIO DA SAÚDE (MS)

DOAÇÃO -
ENTRADA - ORG
EXTERNO

2021006462 25/03/2021 05.333.542/0004-42 TEVA FARMACEUTICA LTDA (ITAPEVI)
DOAÇÃO -

ENTRADA - ORG
EXTERNO

2021006465 25/03/2021 05.333.542/0004-42 TEVA FARMACEUTICA LTDA (ITAPEVI)
DOAÇÃO -

ENTRADA - ORG
EXTERNO

2021006469 25/03/2021 61072393003906 WYETH INDUSTRIA FARMACEUTICA LTDA
DOAÇÃO -

ENTRADA - ORG
EXTERNO

01/01/0001

18/03/2021

20/03/2021

18/03/2021

000000097

000000120

000228600

672.696,55

12.320,00

111.092,52

82.178,40

Página: 18
ENTRADAS DE MATERIAIS DE JANEIRO A MAIO

Valores em R$ 1,00

20/05/2021 20:56:12

 

2021006471

DOAÇÃO -
ENTRADA - ORG
EXTERNO

25/03/2021

61072393003906 WYETH INDUSTRIA FARMACEUTICA LTDA

18/03/2021

000228617

25.416,00

 

2021006631

DOAÇÃO -
ENTRADA - ORG
EXTERNO

30/03/2021

00394544000851 MINISTÉRIO DA SAÚDE (MS)

01/01/0001

252.806,40

 

2021006632

DOAÇÃO -
ENTRADA - ORG
EXTERNO

30/03/2021

00394544000851 MINISTÉRIO DA SAÚDE (MS)

01/01/0001

338.026,17

 

2021006636

DOAÇÃO -
ENTRADA - ORG
EXTERNO

30/03/2021

00394544000851 MINISTÉRIO DA SAÚDE (MS)

01/01/0001

576,00

 

2021006638

DOAÇÃO -
ENTRADA - ORG
EXTERNO

30/03/2021

00394544000851 MINISTÉRIO DA SAÚDE (MS)

01/01/0001

136.893,67

 

2021006818

DOAÇÃO -
ENTRADA - ORG
EXTERNO

05/04/2021

12320079000389 BIONOVIS S/A CIA. BRAS DE BIOTECNOL
FARMACEUTICA

30/03/2021

000002535

807.047,28

 

2021006875

DOAÇÃO -
ENTRADA - ORG
EXTERNO

05/04/2021

11.376.952/0001-20 LABORATÓRIO FARMACÊUTICO DA MARINHA

16/03/2021

000053904

25.823,45

 

2021006938

DOAÇÃO -
ENTRADA - ORG
EXTERNO

05/04/2021

00394544000851 MINISTÉRIO DA SAÚDE (MS)

01/01/0001

51.915,60

 

Página: 19
Er

f É ENTRADAS DE MATERIAIS DE JANEIRO A MAIO

Valores em R$ 1,00

20/05/2021 20:56:12

 

2021006978

DOAÇÃO -
ENTRADA - ORG
EXTERNO

05/04/2021

00394544000851 MINISTÉRIO DA SAÚDE (MS)

01/01/0001

47.403,04

 

2021006980

DOAÇÃO -
ENTRADA - ORG
EXTERNO

05/04/2021

00394544000851 MINISTÉRIO DA SAÚDE (MS)

01/01/0001

2.240,00

 

2021006987

DOAÇÃO -
ENTRADA - ORG
EXTERNO

05/04/2021

00394544000851 MINISTÉRIO DA SAÚDE (MS)

01/01/0001

9.919,32

 

2021006992

DOAÇÃO -
ENTRADA - ORG
EXTERNO

06/04/2021

10.877.926/0001-13 LABORATORIO FAR PE GOV MIGUEL ARRAES

18/03/2021

000097243

100.060,80

 

2021007000

DOAÇÃO -
ENTRADA - ORG
EXTERNO

06/04/2021

10.877.926/0001-13 LABORATORIO FAR PE GOV MIGUEL ARRAES
SA

19/03/2021

000097293

1.420,80

 

2021007001

DOAÇÃO -
ENTRADA - ORG
EXTERNO

06/04/2021

10.877.926/0001-13 LABORATORIO FAR PE GOV MIGUEL ARRAES
SA

17/03/2021

000097106

25.515,66

 

2021007003

DOAÇÃO -
ENTRADA - ORG
EXTERNO

06/04/2021

00.394.544/0008-51 MINISTERIO DA SAUDE

01/01/0001

198.837,41

 

2021007004

DOAÇÃO -
ENTRADA - ORG
EXTERNO

06/04/2021

10.877.926/0001-13 LABORATORIO FAR PE GOV MIGUEL ARRAES

17/03/2021

000097158

146.444,10

 

Página: 20
ENTRADAS DE MATERIAIS DE JANEIRO A MAIO

Valores em R$ 1,00

20/05/2021 20:56:12

 

2021007011 06/04/2021 10.877.926/0001-13 LABORATORIO FAR PE GOV MIGUEL ARRAES

DOAÇÃO -
ENTRADA - ORG
EXTERNO

2021007205 06/04/2021 00394544000851 MINISTÉRIO DA SAÚDE (MS)
DOAÇÃO -

ENTRADA - ORG
EXTERNO

2021007206 06/04/2021 00394544000851 MINISTÉRIO DA SAÚDE (MS)
DOAÇÃO -

ENTRADA - ORG
EXTERNO

2021007207 06/04/2021 00394544000851 MINISTÉRIO DA SAÚDE (MS)
DOAÇÃO -

ENTRADA - ORG
EXTERNO

18/03/2021

01/01/0001

01/01/0001

01/01/0001

000097175

79.786,20

44.516,24

35.897,76

302.789,48

Página: 21
ENTRADAS DE MATERIAIS DE JANEIRO A MAIO

Valores em R$ 1,00

20/05/2021 20:56:12

 

2021007208

DOAÇÃO -
ENTRADA - ORG
EXTERNO

06/04/2021

00394544000851 MINISTÉRIO DA SAÚDE (MS)

01/01/0001

38.087,41

 

2021007225

DOAÇÃO -
ENTRADA - ORG
EXTERNO

08/04/2021

00.394.544/0008-51 MINISTERIO DA SAUDE

01/01/0001

30.660,00

 

2021007607

DOAÇÃO -
ENTRADA - ORG
EXTERNO

09/04/2021

00.394.544/0008-51 MINISTERIO DA SAUDE

01/01/0001

130.813,72

 

2021007610

DOAÇÃO -
ENTRADA - ORG
EXTERNO

09/04/2021

00.394.544/0008-51 MINISTERIO DA SAUDE

01/01/0001

319.974,58

 

2021007749

DOAÇÃO -
ENTRADA - ORG
EXTERNO

13/04/2021

11.376.952/0001-20 LABORATÓRIO FARMACÊUTICO DA MARINHA

29/03/2021

000053936

76.788,60

 

2021007766

DOAÇÃO -
ENTRADA - ORG
EXTERNO

13/04/2021

11.376.952/0001-20 LABORATÓRIO FARMACÊUTICO DA MARINHA

16/03/2021

000053886

146.714,40

 

2021008193

DOAÇÃO -
ENTRADA - ORG
EXTERNO

16/04/2021

00.394.544/0008-51 MINISTERIO DA SAUDE

01/01/0001

429.285,22

 

2021008197

DOAÇÃO -
ENTRADA - ORG
EXTERNO

15/04/2021

10266175000107 LABORATÓRIO QUÍMICO FARMACÊUTICO DO
EXERCITO

01/01/0001

62.000,00

 

Página: 22
ENTRADAS DE MATERIAIS DE JANEIRO A MAIO

Valores em R$ 1,00

20/05/2021 20:56:12

 

2021008549

DOAÇÃO -
ENTRADA - ORG
EXTERNO

15/04/2021

00.394.544/0008-51 MINISTERIO DA SAUDE

01/01/0001

3.374,00

 

2021008561

DOAÇÃO -
ENTRADA - ORG
EXTERNO

18/04/2021

00.394.544/0008-51 MINISTERIO DA SAUDE

01/01/0001

26.576,40

 

2021008566

DOAÇÃO -
ENTRADA - ORG
EXTERNO

19/04/2021

10266175000107 LABORATÓRIO QUÍMICO FARMACÊUTICO DO
EXERCITO

15/04/2021

000022221

12.400,00

 

2021009380

DOAÇÃO -
ENTRADA - ORG
EXTERNO

23/04/2021

00.394.544/0008-51 MINISTERIO DA SAUDE

01/01/0001

246.201,38

 

2021009382

DOAÇÃO -
ENTRADA - ORG
EXTERNO

23/04/2021

00.394.544/0008-51 MINISTERIO DA SAUDE

01/01/0001

97.020,67

 

2021009522

DOAÇÃO -
ENTRADA - ORG
EXTERNO

26/04/2021

11.376.952/0001-20 LABORATÓRIO FARMACÊUTICO DA MARINHA

07/04/2021

000053974

79.552,20

 

2021009525

DOAÇÃO -
ENTRADA - ORG
EXTERNO

26/04/2021

11.376.952/0001-20 LABORATÓRIO FARMACÊUTICO DA MARINHA

07/04/2021

000053974

39.412,80

 

2021010027

DOAÇÃO -
ENTRADA - ORG
EXTERNO

29/04/2021

00.394.544/0008-51 MINISTERIO DA SAUDE

01/01/0001

18.942,99

 

Página: 23
ENTRADAS DE MATERIAIS DE JANEIRO A MAIO

Valores em R$ 1,00

20/05/2021 20:56:12

 

2021010034 28/04/2021 00.394.544/0008-51 MINISTERIO DA SAUDE

DOAÇÃO -
ENTRADA - ORG
EXTERNO

2021010060 28/04/2021 00.394.544/0008-51 MINISTERIO DA SAUDE
DOAÇÃO -

ENTRADA - ORG
EXTERNO

2021010438 01/05/2021 00.394.544/0008-51 MINISTERIO DA SAUDE
DOAÇÃO -

ENTRADA - ORG
EXTERNO

2021010517 04/05/2021 11.376.952/0001-20 LABORATÓRIO FARMACÊUTICO DA MARINHA
DOAÇÃO -

ENTRADA - ORG
EXTERNO

01/01/0001

01/01/0001

01/01/0001

26/04/2021

000054034

17.686,61

151.978,69

223.678,37

45.086,40

Página: 24
f ENTRADAS DE MATERIAIS DE JANEIRO A MAIO

Valores em R$ 1,00

20/05/2021 20:56:12

 

2021010566

DOAÇÃO -
ENTRADA - ORG
EXTERNO

05/05/2021

10266175000107 LABORATÓRIO QUÍMICO FARMACÊUTICO DO
EXERCITO

22/04/2021

000024721

12.400,00

 

2021010629

DOAÇÃO -
ENTRADA - ORG
EXTERNO

05/05/2021

00.394.544/0008-51 MINISTERIO DA SAUDE

01/01/0001

100.703,99

 

2021011010

DOAÇÃO -
ENTRADA - ORG
EXTERNO

07/05/2021

33781055004980 FUNDAÇÃO OSWALDO CRUZ/INSTITUTO DE
TECNOLOGIA EM FARMACOS

03/05/2021

000059971

37.125,00

 

2021012002

DOAÇÃO -
ENTRADA - ORG
EXTERNO

18/05/2021

00.394.544/0008-51 MINISTERIO DA SAUDE

01/01/0001

34.279,88

 

2021012004

DOAÇÃO -
ENTRADA - ORG
EXTERNO

14/05/2021

00.394.544/0008-51 MINISTERIO DA SAUDE

01/01/0001

157.801,40

 

36.136.270,82

Página: 25
f ENTRADAS DE MATERIAIS DE JANEIRO A MAIO

Valores em R$ 1,00

20/05/2021 20:56:12

 

SES - SEDE - CENTRAL

Entrada Nº
2021001098
DOAÇÃO -

ENTRADA - ORG
EXTERNO

DT. Entrada
26/01/2021

Fornecedor / Desc. Empenho
00394544000851 MINISTÉRIO DA SAÚDE (MS)

Data NF
14/01/2021

Nº Nota Fiscal
000338895

Empenho Fonte Valor Entrada
441.615,12

 

2021007057

DOAÇÃO -
ENTRADA - ORG
EXTERNO

07/04/2021

00.394.544/0008-51 MINISTERIO DA SAUDE

25/03/2021

000345979

399.410,40

 

841.025,52

Página: 26
ENTRADAS DE MATERIAIS DE JANEIRO A MAIO

Valores em R$ 1,00

20/05/2021 20:56:12

 

SES - HEMOCENTRO COORDENADOR DE JOAO PESSOA - CENTRAL

Entrada Nº
2021000514
DOAÇÃO -

ENTRADA - ORG
EXTERNO

DT. Entrada

13/01/2021

Fornecedor / Desc. Empenho

07607851000570 EMPRESA BRASILEIRA DE HEMODERIVADOS E

BIOTECNOLOGIA - HEMOBRAS

Data NF
08/01/2021

Nº Nota Fiscal
000006911

Valor Entrada
1.520.400,00

Empenho Fonte

 

2021000516

DOAÇÃO -
ENTRADA - ORG
EXTERNO

13/01/2021

00.394.544/0008-51

MINISTERIO DA SAUDE

08/01/2021

000338450

624.182,39

 

2021000522

DOAÇÃO -
ENTRADA - ORG
EXTERNO

14/01/2021

00.394.544/0008-51

MINISTERIO DA SAUDE

08/01/2021

000338410

152.529,31

 

2021001019

DOAÇÃO -
ENTRADA - ORG
EXTERNO

25/01/2021

00.394.544/0008-51

MINISTERIO DA SAUDE

20/01/2021

000339427

3.408,42

 

2021001401

DOAÇÃO -
ENTRADA - ORG
EXTERNO

03/02/2021

00.394.544/0008-51

MINISTERIO DA SAUDE

29/01/2021

000340174

395.096,04

 

2021002020

DOAÇÃO -
ENTRADA - ORG
EXTERNO

10/02/2021

00.394.544/0008-51

MINISTERIO DA SAUDE

03/02/2021

000340551

52.953,60

 

2021002022

DOAÇÃO -
ENTRADA - ORG
EXTERNO

09/02/2021

00.394.544/0008-51

MINISTERIO DA SAUDE

01/02/2021

000340326

10.009,52

 

2021003738

DOAÇÃO -
ENTRADA - ORG
EXTERNO

08/03/2021

07607851000570 EMPRESA BRASILEIRA DE HEMODERIVADOS E

BIOTECNOLOGIA - HEMOBRAS

05/03/2021

000007033

1.520.400,00

 

Página: 27
ENTRADAS DE MATERIAIS DE JANEIRO A MAIO

Valores em R$ 1,00

20/05/2021 20:56:12

 

2021003951

DOAÇÃO -
ENTRADA - ORG
EXTERNO

09/03/2021

00.394.544/0008-51 MINISTERIO DA SAUDE

04/03/2021

000343900

270.095,84

 

2021004255

DOAÇÃO -
ENTRADA - ORG
EXTERNO

10/03/2021

00.394.544/0008-51 MINISTERIO DA SAUDE

04/03/2021

000343899

151.836,42

 

2021007704

DOAÇÃO -
ENTRADA - ORG
EXTERNO

05/04/2021

00.394.544/0008-51 MINISTERIO DA SAUDE

24/03/2021

000346076

43.719,17

 

2021007709

DOAÇÃO -
ENTRADA - ORG
EXTERNO

05/04/2021

00.394.544/0008-51 MINISTERIO DA SAUDE

24/03/2021

000346067

434.519,96

 

2021010407

DOAÇÃO -
ENTRADA - ORG
EXTERNO

28/04/2021

00.394.544/0008-51 MINISTERIO DA SAUDE

23/04/2021

000349323

982.245,80

 

2021010707

DOAÇÃO -
ENTRADA - ORG
EXTERNO

28/04/2021

00.394.544/0008-51 MINISTERIO DA SAUDE

23/04/2021

000349332

1.242.653,73

 

2021011113

DOAÇÃO -
ENTRADA - ORG
EXTERNO

06/05/2021

08.778.268/0001-60 SECRETARIA DE ESTADO DE SAUDE - PB

06/05/2021

000000017

666,04

 

2021011901

DOAÇÃO -
ENTRADA - ORG
EXTERNO

17/05/2021

07607851000570 EMPRESA BRASILEIRA DE HEMODERIVADOS E
BIOTECNOLOGIA - HEMOBRAS

10/05/2021

000000866

2.740.000,00

 

Página: 28
Valores em R$ 1,00

 

20/05/2021 20:56:12

sm ENTRADAS DE MATERIAIS DE JANEIRO A MAIO

 

10.144.716,24

Página: 29
Valores em R$ 1,00

 

20/05/2021 20:56:12

sm ENTRADAS DE MATERIAIS DE JANEIRO A MAIO

 

Total 55.151.969,67

Página: 30
 

Cliente - Conta atual

G3361817187992121
18/05/2021 17:26:00

 

Agência

Conta corrente
Período do extrato

Lançamentos

1618-7

13581-X PB FES CUSTEIO SUS

06/2020

 

Dt balancete Dt. movimento Ag. origem Lote Histórico

29/05/2020
01/06/2020
01/06/2020
02/06/2020
02/06/2020
02/06/2020
02/06/2020
02/06/2020
03/06/2020
03/06/2020
03/06/2020
03/06/2020
03/06/2020
03/06/2020
03/06/2020
03/06/2020
03/06/2020
04/06/2020
04/06/2020
04/06/2020
05/06/2020
05/06/2020
05/06/2020
08/06/2020
08/06/2020
08/06/2020
08/06/2020
08/06/2020
09/06/2020
09/06/2020
09/06/2020
10/06/2020
10/06/2020
12/06/2020
12/06/2020
12/06/2020
12/06/2020
12/06/2020
12/06/2020
12/06/2020
15/06/2020
15/06/2020
15/06/2020
15/06/2020
15/06/2020
15/06/2020
15/06/2020
17/06/2020
17/06/2020
17/06/2020
18/06/2020

01/06/2020
01/06/2020
02/06/2020
02/06/2020
02/06/2020
02/06/2020
02/06/2020
03/06/2020
03/06/2020
03/06/2020
03/06/2020
03/06/2020
03/06/2020
03/06/2020
03/06/2020
03/06/2020
04/06/2020
04/06/2020
04/06/2020
05/06/2020
05/06/2020
05/06/2020
08/06/2020
08/06/2020
08/06/2020
08/06/2020
08/06/2020
09/06/2020
09/06/2020
09/06/2020
10/06/2020
10/06/2020
12/06/2020
12/06/2020
12/06/2020
12/06/2020
12/06/2020
12/06/2020
12/06/2020
15/06/2020
15/06/2020
15/06/2020
15/06/2020
15/06/2020
15/06/2020
15/06/2020
17/06/2020
17/06/2020
17/06/2020
18/06/2020

0000
0000
0000
0000
0000
0000
0000
0000
0000
0000
0000
0000
0000
0000
0000
0000
0000
0000
0000
0000
0000
0000
0000
0521
0000
0000
0000
0000
0000
0000
0000
0000
0000
0000
0000
0000
0000
0000
0000
0000
0000
0000
0000
0000
0000
0000
0000
0000
0000
0000
0000

00000 000 Saldo Anterior

13138 132 Emissão Ordem Bancária
00000 855 BB CP Automatico S P
14173 900 Resgate Depósito Judicial
14138972 ORDEM BANC CANCELADA
14056 632 Ordem Bancária

13138 132 Emissão Ordem Bancária
00000 345 BB CP Automatico S P
14056 632 Ordem Bancária

14056 632 Ordem Bancária

14056 632 Ordem Bancária

14056 632 Ordem Bancária

14056 632 Ordem Bancária

14056 632 Ordem Bancária

14056 632 Ordem Bancária

13138 132 Emissão Ordem Bancária
00000 345 BB CP Automatico S P
14173 900 Resgate Depósito Judicial
13138 132 Emissão Ordem Bancária
00000 855 BB CP Automatico S P
14173 900 Resgate Depósito Judicial
14138972 ORDEM BANC CANCELADA
00000 345 BB CP Automatico S P
99021 870 Transferência recebida
14173 900 Resgate Depósito Judicial
13138 132 Emissão Ordem Bancária
13138 132 Emissão Ordem Bancária
00000 855 BB CP Automatico S P
14173 900 Resgate Depósito Judicial
13138 132 Emissão Ordem Bancária
00000 855 BB CP Automatico S P
13138 132 Emissão Ordem Bancária
00000 855 BB CP Automatico S P
14175 623 DOC Crédito em Conta
14138972 ORDEM BANC CANCELADA
14056 632 Ordem Bancária

12334 920 Blog Judicial-Bacen Jud
13138 132 Emissão Ordem Bancária
11334 284 Blog Judicial-Bacen Jud
00000 855 BB CP Automatico S P
14138972 ORDEM BANC CANCELADA
14138972 ORDEM BANC CANCELADA
14056 632 Ordem Bancária

14056 632 Ordem Bancária

14056 632 Ordem Bancária

13138 132 Emissão Ordem Bancária
00000 345 BB CP Automatico S P
13138 132 Emissão Ordem Bancária
13138 132 Emissão Ordem Bancária
00000 855 BB CP Automatico S P
14173 900 Resgate Depósito Judicial

Documento

3.589

70

47.445.788
163.930.000
2.074.001.000.001
3.570

70
2.079.124.000.001
2.085.308.000.001
2.085.312.000.001
2.085.503.000.001
2.085.652.000.001
2.085.661.000.001
2.085.792.000.001
3.571

70

47.475.653

3.573

70

47.503.360
171.390.000

70
610.521.000.021.749
47.535.535

3.574

3.576

70

47.559.072

3.577

70

3.578

70

911.298
186.690.000
2.239.508.000.001
12.066.232.900.101
3.579
12.066.232.900.101
70

186.630.000
188.190.000
2.265.426.000.001
2.269.384.000.001
2.269.581.000.001
3.580

70

3.594

3.596

70

47.661.834

Valor R$ Saldo
0,00 C
1.481.008,48 D
1.481.008,48 C 0,00 C
27,45C
671,20C
8.192.000,00 C
1.249.930,38 D
4.942.768,27 D 0,00 C
11.989.875,09 C
25.036,81 C
30.000,00 C
22.500,00 C
124.856,82 C
144.847,95 C
150.000,00 C
953.404,17 D
11.533.712,50 D 0,00 C
2.047,67 C
170.583,00 D
168.535,33 C 0,00 C
13.335,12 C
3.584,00 C
16.899,12 D 0,00 C
250,96 C
540,41 C
248.514,10D
497.416,04 D
745.138,77 00,00 C
14.423,36 C
1.212.001,71 D
“197.578,35 C 0,00 C
330.869,69 D
330.869,69 C 0,00 C
49,50 C
1.534,50 C
569.490,11 C
215.111,04 *
1.225.339,28 D
215.111,04D
869.376,21 C 0,00 C
3.485,00 C
1.889,49 C
651.345,62 C
313.325,62 C
4.597,50 C
287.212,66D
687.410,57 D 0,00 C
309.931,30 D
823.580,51 D
1.133.511,81 C0,00 C
545,50 C
 

 

18/06/2020 18/06/2020 0000 14173900 Resgate Depósito Judicial 47.669.782 19.179,94 C
18/06/2020 18/06/2020 0000 13138 132 Emissão Ordem Bancária 3.597 1.605.049,44 D
18/06/2020 18/06/2020 0000 00000 855 BB CP Automatico S P 70 1.585.324,00 C 0,00 C
19/06/2020 19/06/2020 0000 14138972 ORDEM BANC CANCELADA 194.440.000 12.907,32 C
19/06/2020 19/06/2020 0000 14138972 ORDEM BANC CANCELADA 196.230.000 4.504,50 C
19/06/2020 19/06/2020 0000 13138 132 Emissão Ordem Bancária 3.599 1.374.629,29 D
19/06/2020 19/06/2020 0000 | 00000 855 BB CP Automatico S P 70 1.357.217,47 00,00 C
22/06/2020 22/06/2020 0000 13138 132 Emissão Ordem Bancária 3.600 1.487.069,21 D
22/06/2020 22/06/2020 0000 00000 855 BB CP Automatico S P 70 1.487.069,21 C 0,00 C
23/06/2020 23/06/2020 0000 14138972 ORDEM BANC CANCELADA 204.310.000 28.092,41 C
23/06/2020 23/06/2020 0000 00000 345 BB CP Automatico S P 70 28.092,41 D 0,00 C
24/06/2020 24/06/2020 0000 14056 632 Ordem Bancária 2.388.181.000.001 6.891.210,00 C
24/06/2020 24/06/2020 0000 00000 345 BB CP Automatico S P 70 6.891.210,00 D 0,00 C
25/06/2020 25/06/2020 0000 13138 132 Emissão Ordem Bancária 3.602 938.127,69D
25/06/2020 25/06/2020 0000 00000 855 BB CP Automatico S P 70 938.127,69C0,00 C
26/06/2020 26/06/2020 0000 13138 132 Emissão Ordem Bancária 3.604 866.088,65 D
26/06/2020 26/06/2020 0000 | 00000 855 BB CP Automatico S P 70 866.088,65C 0,00 C
29/06/2020 29/06/2020 0000 14138972 ORDEM BANC CANCELADA 209.770.000 4.949,52 C
29/06/2020 29/06/2020 0000 14138972 ORDEM BANC CANCELADA 211.300.000 1.500,00 C
29/06/2020 29/06/2020 0000 13138 132 Emissão Ordem Bancária 3.606 620.061,38 D
29/06/2020 29/06/2020 0000 | 00000 855 BB CP Automatico S P 70 613.611,86C0,00 C
30/06/2020 30/06/2020 0000 13138 132 Emissão Ordem Bancária 3.607 1.118.728,85 D
30/06/2020 30/06/2020 0000 | 00000 855 BB CP Automatico S P 70 1.118.728,85 C
30/06/2020 0000 00000855SALDO 0,00 C
Transação efetuada com sucesso por: JB599661 JOSE F CHAGAS.
Serviço de Atendimento ao Consumidor - SAC 0800 729 0722 Ouvidoria BB 0800 729 5678

Para deficientes auditivos 0800 729 0088
 

Cliente - Conta atual

G3361817187992121
18/05/2021 17:25:48

 

Agência
Conta corrente
Período do extrato

Lançamentos

1618-7

13581-X PB FES CUSTEIO SUS

04/2020

 

Dt balancete Dt. movimento Ag. origem Lote Histórico

31/03/2020
01/04/2020
01/04/2020
02/04/2020
02/04/2020
02/04/2020
02/04/2020
02/04/2020
02/04/2020
02/04/2020
03/04/2020
03/04/2020
03/04/2020
03/04/2020
03/04/2020
03/04/2020
03/04/2020
06/04/2020
06/04/2020
06/04/2020
07/04/2020
07/04/2020
07/04/2020
07/04/2020
07/04/2020
07/04/2020
07/04/2020
07/04/2020
07/04/2020
08/04/2020
08/04/2020
08/04/2020
08/04/2020
08/04/2020
08/04/2020
08/04/2020
08/04/2020
09/04/2020
09/04/2020
09/04/2020
09/04/2020
13/04/2020
13/04/2020
13/04/2020
14/04/2020
14/04/2020
14/04/2020
14/04/2020
14/04/2020
14/04/2020
15/04/2020

01/04/2020
01/04/2020
02/04/2020
02/04/2020
02/04/2020
02/04/2020
02/04/2020
02/04/2020
02/04/2020
03/04/2020
03/04/2020
03/04/2020
03/04/2020
03/04/2020
03/04/2020
03/04/2020
06/04/2020
06/04/2020
06/04/2020
07/04/2020
07/04/2020
07/04/2020
07/04/2020
07/04/2020
07/04/2020
07/04/2020
07/04/2020
07/04/2020
08/04/2020
08/04/2020
08/04/2020
08/04/2020
08/04/2020
08/04/2020
08/04/2020
08/04/2020
09/04/2020
09/04/2020
09/04/2020
09/04/2020
13/04/2020
13/04/2020
13/04/2020
14/04/2020
14/04/2020
14/04/2020
14/04/2020
14/04/2020
14/04/2020
15/04/2020

0000
0000
0000
0000
0000
0000
0000
0000
0000
0000
0000
0000
0000
0000
0000
0000
0000
0000
0000
0000
0000
0000
0000
0000
0000
0000
0000
0000
0000
1654
0000
0000
0000
0000
0000
0000
0000
0000
0000
0000
0000
0000
0000
0000
0000
0000
0000
0000
0000
0000
0000

00000 000 Saldo Anterior

13138 132 Emissão Ordem Bancária
00000 855 BB CP Automatico S P
14173 900 Resgate Depósito Judicial
14056 632 Ordem Bancária

14056 632 Ordem Bancária

13138 132 Emissão Ordem Bancária
11162631 Desbl Judicial-Bacen Jud
13373 500 Transf Depósito Judicial
00000 345 BB CP Automatico S P
14056 632 Ordem Bancária

14056 632 Ordem Bancária

14056 632 Ordem Bancária

12334 920 Blog Judicial-Bacen Jud
13138 132 Emissão Ordem Bancária
11334 284 Blog Judicial-Bacen Jud
00000 855 BB CP Automatico S P
14056 632 Ordem Bancária

13138 132 Emissão Ordem Bancária
00000 855 BB CP Automatico S P
14138972 ORDEM BANC CANCELADA
14138972 ORDEM BANC CANCELADA
14138972 ORDEM BANC CANCELADA
14138972 ORDEM BANC CANCELADA
99015 470 Transferência enviada

13138 132 Emissão Ordem Bancária
11162631 Desbl Judicial-Bacen Jud
13373 500 Transf Depósito Judicial
00000 855 BB CP Automatico S P
99015 870 Transferência recebida
14138972 ORDEM BANC CANCELADA
14138972 ORDEM BANC CANCELADA
14138972 ORDEM BANC CANCELADA
14138972 ORDEM BANC CANCELADA
14138972 ORDEM BANC CANCELADA
13138 132 Emissão Ordem Bancária
00000 855 BB CP Automatico S P
14138972 ORDEM BANC CANCELADA
14138972 ORDEM BANC CANCELADA
14138972 ORDEM BANC CANCELADA
00000 345 BB CP Automatico S P
14056 632 Ordem Bancária

13138 132 Emissão Ordem Bancária
00000 345 BB CP Automatico S P
14173 900 Resgate Depósito Judicial
14173 900 Resgate Depósito Judicial
14138972 ORDEM BANC CANCELADA
14056 632 Ordem Bancária

13138 132 Emissão Ordem Bancária
00000 345 BB CP Automatico S P
14138972 ORDEM BANC CANCELADA

Documento

3.520

70

46.764.962
1.225.686.000.001
1.226.008.000.001
3.521

85.470.001
12.046.834.170.101
0
1.241.187.000.001
1.258.560.000.001
1.258.797.000.001
12.047.261.500.101
3.522
12.047.261.500.101
70
1.293.178.000.001
3.523

70

73.020.000
73.090.000
73.490.000
75.590.000
550.022.000.035.164
3.524

85.670.001
12.047.261.500.101
70
551.654.000.023.948
74.620.000
75.220.000
78.720.000
78.730.000
78.800.000

3.525

70

79.660.000
80.720.000
80.800.000

70
1.389.681.000.001
3.526

70

46.885.862
46.889.263
82.110.000
1.391.032.000.001
3.527

70

83.790.000

q

Valor R$ Saldo
0,00 C
226.514,86 D
226.514,86 0,00 C
27.104,49 C
20.343,15 C
12.209.810,37C
780.299,99 D
38.240,70 C
38.240,70 D
1.476.458,02 D 0,00 C
124.856,82 C
30.000,00 C
150.000,00 C
47.489,00 *
501.465,57 D
47.489,00 D
244.097,75 C0,00 C
22.500,00 C
168.434,24 D
145.934,24 C 0,00 C
1.084,10
7.183,60C
447,00 C
297,00 C
2.199.600,00 D
777.682,47 D
47.489,00 C
47.489,00 D
2.968.270,77 60,00 C
9.913,50
7.62443C
148,50 C
2.786,00 C
3.212,80
4.000,50 C
654.968,89 D
627.283,16C0,00 C
3.040,00 C
908,55 C
1.356,00 C
5.304,55 D 0,00 C
2.769.882,45 C
662.646,81 D
2.107.236,14 D0,00 C
24,45 C
12.847,64C
25,00C
9.140.307,93 C
869.752,50 D
8.283.452,52 D 0,00 C
194,90 C
15/04/2020
15/04/2020
15/04/2020
15/04/2020
15/04/2020
15/04/2020
15/04/2020
15/04/2020
15/04/2020
15/04/2020
15/04/2020
16/04/2020
16/04/2020
16/04/2020
17/04/2020
17/04/2020
17/04/2020
17/04/2020
17/04/2020
17/04/2020
17/04/2020
17/04/2020
17/04/2020
17/04/2020
17/04/2020
17/04/2020
17/04/2020
17/04/2020
20/04/2020
20/04/2020
20/04/2020
20/04/2020
20/04/2020
20/04/2020
20/04/2020
20/04/2020
20/04/2020
20/04/2020
22/04/2020
22/04/2020
22/04/2020
22/04/2020
22/04/2020
22/04/2020
22/04/2020
23/04/2020
23/04/2020
23/04/2020
23/04/2020
23/04/2020
23/04/2020
23/04/2020
24/04/2020
24/04/2020
27/04/2020
27/04/2020
27/04/2020
28/04/2020
28/04/2020
28/04/2020
28/04/2020
28/04/2020
29/04/2020
29/04/2020
29/04/2020

15/04/2020
15/04/2020
15/04/2020
15/04/2020
15/04/2020
15/04/2020
15/04/2020
15/04/2020
15/04/2020
15/04/2020
15/04/2020
16/04/2020
16/04/2020
16/04/2020
17/04/2020
17/04/2020
17/04/2020
17/04/2020
17/04/2020
17/04/2020
17/04/2020
17/04/2020
17/04/2020
17/04/2020
17/04/2020
17/04/2020
17/04/2020
17/04/2020
20/04/2020
20/04/2020
20/04/2020
20/04/2020
20/04/2020
20/04/2020
20/04/2020
20/04/2020
20/04/2020
20/04/2020
22/04/2020
22/04/2020
22/04/2020
22/04/2020
22/04/2020
22/04/2020
22/04/2020
23/04/2020
23/04/2020
23/04/2020
23/04/2020
23/04/2020
23/04/2020
23/04/2020
24/04/2020
24/04/2020
27/04/2020
27/04/2020
27/04/2020
28/04/2020
28/04/2020
28/04/2020
28/04/2020
28/04/2020
29/04/2020
29/04/2020
29/04/2020

0000
0000
0000
0000
0000
0000
0000
0000
0000
0000
0000
0000
0000
0000
0000
0000
0000
0000
0000
0000
0000
0000
0000
0000
0000
0000
0000
0000
0000
0000
0000
0000
0000
0000
0000
0000
0000
0000
0000
0000
0000
0000
0000
0000
0000
0000
0000
0000
0000
0000
0000
0000
0000
0000
0000
0000
0000
0000
0000
0000
0000
0000
0000
0000
0000

14138972 ORDEM BANC CANCELADA 84.250.000
14056 632 Ordem Bancária 1.410.744.000.001
12334 920 Blog Judicial-Bacen Jud 12.048.375.940.101
12334 920 Blog Judicial-Bacen Jud 12.048.390.000.101
12334 920 Blog Judicial-Bacen Jud 12.048.401.830.101
14138 632 Ordem Bancária 202.004.140.010.363
13138 132 Emissão Ordem Bancária 3.529
11334 284 Blog Judicial-Bacen Jud 12.048.375.940.101
11334 284 Blog Judicial-Bacen Jud 12.048.390.000.101
11334 284 Blog Judicial-Bacen Jud 12.048.401.830.101
00000 855 BB CP Automatico S P 70
14138972 ORDEM BANC CANCELADA 85.300.000
13138 132 Emissão Ordem Bancária 3.580
00000 855 BB CP Automatico S P 70
14056 632 Ordem Bancária 1.462.650.000.001
14056 632 Ordem Bancária 1.462.971.000.001
12334 920 Blog Judicial-Bacen Jud 12.048.704.081.001
12334 920 Blog Judicial-Bacen Jud 12.048.715.350.101
12334 920 Blog Judicial-Bacen Jud 12.048.745.950.101
13138 132 Emissão Ordem Bancária 3.581
11162631 Desbl Judicial-Bacen Jud 85.910.001
11162631 Desbl Judicial-Bacen Jud 85.930.001
13373 500 Transf Depósito Judicial 12.048.375.940.101
13373 500 Transf Depósito Judicial 12.048.401.830.101
11334 284 Blog Judicial-Bacen Jud 12.048.704.081.001
11334 284 Blog Judicial-Bacen Jud 12.048.715.350.101
11334 284 Blog Judicial-Bacen Jud 12.048.745.950.101
00000 345 BB CP Automatico S P 70
14056 632 Ordem Bancária 1.479.018.000.001
14056 632 Ordem Bancária 1.487.654.000.001
12334 920 Blog Judicial-Bacen Jud 12.048.805.780.501
12334 920 Blog Judicial-Bacen Jud 12.048.929.170.101
13138 132 Emissão Ordem Bancária 3.582
11162631 Desbl Judicial-Bacen Jud 85.920.001
13373 500 Transf Depósito Judicial 12.048.390.000.101
11334 284 Blog Judicial-Bacen Jud 12.048.805.780.501
11334 284 Blog Judicial-Bacen Jud 12.048.929.170.101
00000 855 BB CP Automatico S P 70
14138972 ORDEM BANC CANCELADA 91.710.000
14138972 ORDEM BANC CANCELADA 94.390.000
14138972 ORDEM BANC CANCELADA 97.580.000
99015 470 Transferência enviada 553.455.000.117.215
13138 132 Emissão Ordem Bancária 3.533
11162631 Desbl Judicial-Bacen Jud 86.060.001
00000 855 BB CP Automatico S P 70
14138972 ORDEM BANC CANCELADA 94.500.000
13138 132 Emissão Ordem Bancária 3.534
11162631 Desbl Judicial-Bacen Jud 86.050.001
11162631 Desbl Judicial-Bacen Jud 86.070.001
11162631 Desbl Judicial-Bacen Jud 86.090.001
13373 500 Transf Depósito Judicial 12.048.745.950.101
00000 855 BB CP Automatico S P 70
13138 132 Emissão Ordem Bancária 3.535
00000 855 BB CP Automatico S P 70
14173 900 Resgate Depósito Judicial 47.010.051
13138 132 Emissão Ordem Bancária 3.536
00000 855 BB CP Automatico S P 70
14056 632 Ordem Bancária 1.557.667.000.001
13138 132 Emissão Ordem Bancária 3.587
11162631 Desbl Judicial-Bacen Jud 86.100.001
13373 500 Transf Depósito Judicial 12.048.929.170.101
00000 855 BB CP Automatico S P 70
14138972 ORDEM BANC CANCELADA 107.780.000
14138972 ORDEM BANC CANCELADA 107.950.000
13138 132 Emissão Ordem Bancária 3.539

1.487,00 C
569.490,11 C
268.800,00 *
46,90 *
14.606,00 *
36.876,00 C
600.206,02 D
268.800,00 D
46,90D
14.606,00 D
275.610,91 00,00 C
447,00 C
280.040,96 D
279.593,96 C 0,00 C
800.985,93 C
353.613,26 C
ste
14.250,00 *
138.712,00 *
421.932,37 D
268.800,00 C
14.606,00 C
268.800,00 D
14.606,00 D
47142D
14.250,00 D
138.712,00 D
579.657,70 D 0,00 C
7.203,38C
28.128,63 C
10.860,00 *
2.871,60 *
229.083,98 D
46,90C
46,90D
10.860,00 D
2.871,60 D
212.438,62 00,00 C
908,55 C
1.707,75 C
964,50 C
1.900.000,00 D
1.642.682,18 D
14.250,00 C
3.524.851,88 C 0,00 C
49,50C
1.744.737,40 D
47126
138.712,00 C
10.860,00 C
138.712,00 D
1.738.780,78 C 0,00 C
1.284.625,00 D
1.284.625,00 C 0,00 C
27,82C
924.165,65 D
924.137,88 C 0,00 C
113.715,59 C
622.039,87 D
2.871,60
2.871,60 D
508.324,28 C 0,00 C
13.815,36 C
767,25
677.655,64 D
29/04/2020
30/04/2020
30/04/2020
30/04/2020

29/04/2020
30/04/2020
30/04/2020

0000
0000
0000
0000

00000 855 BB CP Automatico S P
13138 132 Emissão Ordem Bancária
00000 855 BB CP Automatico S P
00000855SALDO

70  663.073,03C
3.541  576.924,72D
70 576.924,72C

0,00

0,00 C

 

 

 

Transação efetuada com sucesso por: JB599661 JOSE F CHAGAS.

Serviço de Atendimento ao Consumidor - SAC 0800 729 0722

Ouvidoria BB 0800 729 5678
Para deficientes auditivos 0800 729 0088
G3361817187992121
18/05/2021 17:27:14

 

Cliente - Conta atual

 

 

Agência 16187
Conta corrente 13581-X PB FES CUSTEIO SUS
Período doextrato Mês atual
Lançamentos
Dt. balancete Dt. movimento a Lote Histórico Documento Valor R$ Saldo
30/04/2021 0000 00000000 Saldo Anterior 0,00 C
972 ORDEM BANC
03/05/2021 0000 14138 MOLA 154990000 800,00C
03/05/2021 0000 13138132 Emissão Ordem Bancária 3844 262.595,15D
03/05/2021 0000 00000855 BB CP Automatico S P 70 261.795,15C 0,00 €
04/05/2021 0000 14056632 Ordem Bancária 1.549.498,000.001 12195.469,21
005304930001-71 DIRETORIA EXECUTIVA DO
04/05/2021 0000 14056632 Ordem Bancária 1.552.816.000.001 60.000,00 C
005304930001-71 DIRETORIA EXECUTIVA DO
04/05/2021 0000 14056632 Ordem Bancária 1.558.259.000.001 30.000,00 C
005304930001-71 DIRETORIA EXECUTIVA DO
04/05/2021 0000 13138132 Emissão Ordem Bancária 3845 929.566,76 D
04/05/2021 0000 00000345 BB CP Automatico S P 70 1.295.902,06 0,00 €
05/05/2021 0000 14056632 Ordem Bancária 1.556.235.000.001 60.000,00 C
005304930001-71 DIRETORIA EXECUTIVA DO
05/05/2021 0000 14056632 Ordem Bancária 1.556.847.000.001 100.981,93 C
005304930001-71 DIRETORIA EXECUTIVA DO
05/05/2021 0000 14056632 Ordem Bancária 1.557.250.000.001 25.036,81 C
005304930001-71 DIRETORIA EXECUTIVA DO
05/05/2021 0000 14056632 Ordem Bancária 1.557.512.000.001 124.856,82 C
005304930001-71 DIRETORIA EXECUTIVA DO
05/05/2021 0000 14056632 Ordem Bancária 1.557.911.000.001 100.981,98 C
005304930001-71 DIRETORIA EXECUTIVA DO
05/05/2021 0000 14056632 Ordem Bancária 1.558.639.000.001 150.000,00 C
005304930001-71 DIRETORIA EXECUTIVA DO
05/05/2021 0000 14056632 Ordem Bancária 1.567.225.000.001 60.000,00 C
005304930001-71 DIRETORIA EXECUTIVA DO
05/05/2021 0000 14056632 Ordem Bancária 1.567.339.000.001 22.500,00 C
005304930001-71 DIRETORIA EXECUTIVA DO
05/05/2021 0000 14056632 Ordem Bancária 1.567.600.000.001 100.981,98 C
005304930001-71 DIRETORIA EXECUTIVA DO
05/05/2021 0000 13138132 Emissão Ordem Bancária 3.846 522.521,69D
05/05/2021 0000 00000345 BB CP Automatico S P 70 222.817,73D 0,00 6
06/05/2021 0000 14173900 Resgate Depósito Judicial 52.227.645 602C
06/05/2021 0000 13138132 Emissão Ordem Bancária 3847 469.963,58 D
06/05/2021 0000 00000855 BB CP Automatico S P 70 489.957,56 C 0,00 C
07/05/2021 0000 14173900 Resgate Depósito Judicial 52285798  1.4232C
07/05/2021 0000 ABB CA LADA NO 163.970.000  14850C
07/05/2021 0000 13138132 Emissão Ordem Bancária 3848 414.169,66 D
07/05/2021 0000 00000855 BB CP Automatico S P 70 412.67884C 0,00 C
972 ORDEM BANC
10/05/2021 0000 14138 MOLA 166.600.000  74250C
10/05/2021 0000 13138132 Emissão Ordem Bancária 3.849 539.385,04 D
10/05/2021 0000 00000855 BB CP Automatico S P 70 538.643,14C 0,00 €
11/05/2021 0000 13138132 Emissão Ordem Bancária 3850 79.27234D
11/05/2021 0000 00000855 BB CP Automatico S P 70 7927284C 0,00 €
12/05/2021 0000 14056632 Ordem Bancária 1.706.422.000.001 20.843,15

005304930001-71 DIRETORIA EXECUTIVA DO
12/05/2021
12/05/2021
12/05/2021

13/05/2021
13/05/2021

13/05/2021

13/05/2021

13/05/2021
13/05/2021
13/05/2021

13/05/2021

14/05/2021
14/05/2021
17/05/2021
17/05/2021

18/05/2021

18/05/2021

DEMAIS VALORES BLOQ.

0000

0000
0000

0000
0000

0000

0000

0000
0000
0000

0000

0000
0000
0000
0000

1618

0000

14056632 Ordem Bancária 1.706.895.000.001
005304930001-71 DIRETORIA EXECUTIVA DO
13138132 Emissão Ordem Bancária 3.851
00000855 BB CP Automatico S P 70
1138 ONCE DRS NO 178.920.000
14056632 Ordem Bancária 1.740.845.000.001
005304930001-71 DIRETORIA EXECUTIVA DO
14056632 Ordem Bancária 1.740.945.000.001
005304930001-71 DIRETORIA EXECUTIVA DO
14056632 Ordem Bancária 1.741.016.000.001

005304930001-71 DIRETORIA EXECUTIVA DO
12334920 Blog Judicial-Bacen Jud 12.117.685.271.802

13138132 Emissão Ordem Bancária 3.852
11334284 Blog Judicial-Bacen Jud 12.117.685.271.802
00000345 BB CP Automatico S P 70
13138132 Emissão Ordem Bancária 3.853
00000855 BB CP Automatico S P 70
13138132 Emissão Ordem Bancária 3.854
00000855 BB CP Automatico S P 70
00032 132 Emissão Ordem Bancária 3.855

00000999SAL DO

570.026,36 C

681.119,86D
90.750,35 C

2.450,25 C
43.084,80 C

57.446,40 C

5.568.000,00
c

4.396,38 *
375.389,38 D
4.396,38 D
5.291.195,69
D

969.442,12 D
969.442,12 C
562.524,76 D
562.524,76 C
1.033.058,74

D

0,00 C

0,00 C

0,00 C

0,00 C

1.033.058,74
D

78.977,12

 

Investcom Resgate Autom.
Saldo

Juros *

Data de Debito de Juros
IOF *

Data de Debito de IOF

S.Público Automático

199.223.776,21 C
198.190.717,47 C

0,00
31/05/2021
0,00
01/06/2021

199.223.776,21

 

 

 

Transação efetuada com sucesso por: JB599661 JOSE F CHAGAS.

Serviço de Atendimento ao Consumidor - SAC 0800 729 0722

Ouvidoria BB 0800 729 5678

Para deficientes auditivos 0800 729 0088
G3361817187992121
18/05/2021 17:26:22

 

Cliente - Conta atual

 

Agência 1618-7
Conta corrente 13581-X PB FES CUSTEIO SUS
Período do extrato 10/2020

 

Lançamentos

Dt balancete Dt. movimento Ag. origem Lote Histórico Documento. Valor R$ Saldo
30/09/2020 0000 00000 000 Saldo Anterior 0,00 C
01/10/2020 01/10/2020 0000 13138 132 Emissão Ordem Bancária 3.689 385.023,40 D
oi/t02020 01/10/2020 0000 00000 855 BB CP Automatico S P 70  385.023,40C 0,00 C
02/10/2020 02/10/2020 0000 14056 632 Ordem Bancária 3.940.586.000.001 522.801,90 C
o2't02020 02/10/2020 0000 14056 632 Ordem Bancária 3.940.744.000.001 150.000,00 C
02/10/2020 02/10/2020 0000 14056 632 Ordem Bancária 3.940.853.000.001 12.213.179,52 €
oz/t02020 02/10/2020 0000 14056 632 Ordem Bancária 3.940.965.000.001 30.000,00 C
02/10/2020 02/10/2020 0000 14056 632 Ordem Bancária 3.941.170.000.001 124.856,82
2/10/2020 02/10/2020 0000 13138 132 Emissão Ordem Bancária 3.690 158.61202D
02/10/2020 02/10/2020 0000 00000 345 BB CP Automatico S P 70 12.882.226,22 D 0,00 C
osfto2020 05/10/2020 0000 14056 632 Ordem Bancária 3.962.550.000.001 3.300.000,00 C
05/10/2020 05/10/2020 0000 14056 632 Ordem Bancária 3.962.787.000.001 2.250.000,00 C
osft0/2020 05/10/2020 0000 14056 632 Ordem Bancária 3.962.859.000.001 1.000.000,00 C
osft0/2020 05/10/2020 0000 12334 920 Blog Judicial-Bacen Jud 12.009.854.910.401 1.087,41 *
osft02020 05/10/2020 0000 13138 132 Emissão Ordem Bancária 3692 901.689,47 D
05/10/2020 05/10/2020 0000 11334 284 Blog Judicial-Bacen Jud 12.009.854.910.401 1.087,41 D
05/10/2020 05/10/2020 0000 00000 345 BB CP Automatico S P 70 5.647.223,12D0,00C
06/10/2020 06/10/2020 0000 14056 632 Ordem Bancária 3.991.934.000.001 100.453,18
o6/t0/2020 06/10/2020 0000 14056 632 Ordem Bancária 3.992.469.000.001 100.453,18
06/10/2020 06/10/2020 0000 14056 632 Ordem Bancária 3.993.244.000.001 65.444,45 C
o6/to2020 06/10/2020 0000 14056 632 Ordem Bancária 3.993.380.000.001 65.444,45 C
06/10/2020 06/10/2020 0000 14056 632 Ordem Bancária 3.993.647.000.001 65.444,45 C
o6/t02020 06/10/2020 0000 14056 632 Ordem Bancária 3.994.008.000.001 100.453,18
06/10/2020 06/10/2020 0000 14056 632 Ordem Bancária 3.994.221.000.001 100.453,18
o6to2020 06/10/2020 0000 14056 632 Ordem Bancária 3.994.489.000.001 65.444,45 C
06/10/2020 06/10/2020 0000 13138 132 Emissão Ordem Bancária 3.693 1.399.323,58 D
o6/t0/2020 06/10/2020 0000 00000 855 BB CP Automatico S P 70 735.733,06C 0,00 C
o7/to2020 07/10/2020 0000 13138 132 Emissão Ordem Bancária 3.694 1.254.533,81 D
orito2020 07/10/2020 0000 00000 855 BB CP Automatico S P 70 1.254.533,81 C 0,00 C
og/t02020 08/10/2020 0000 14138 972 ORDEM BANC CANCELADA 421.220.000 519,75 C
osfto2020 08/10/2020 0000 14056 632 Ordem Bancária 4.074.579.000.001  22.500,00C
osfto2020 08/10/2020 0000 14056 632 Ordem Bancária 4.074623.000.001 25.036,81 C
ogfto2020 08/10/2020 0000 13138 132 Emissão Ordem Bancária 3.695 1.682.464,92 D
ogfto2020 08/10/2020 0000 11162 631 Desbl Judicial-Bacen Jud 91.940.001 1.087,41 C
osfto2020 08/10/2020 0000 13373 500 Transf Depósito Judicial 12.009.854.910.402 1.087,41 D
og/to2020 08/10/2020 0000 00000 855 BB CP Automatico S P 70 1.634.408,36 C 0,00 C
og/t0/2020 09/10/2020 0000 14138 972 ORDEM BANC CANCELADA 423.150.000 495,00 C
og/t0/2020 09/10/2020 0000 14138 972 ORDEM BANC CANCELADA 423.360.000 445,50 C
ogrto2020 09/10/2020 0000 14056 632 Ordem Bancária 4.094.970.000.001  20.343,15C
og/t0/2020 09/10/2020 0000 13138 132 Emissão Ordem Bancária 3.696 549.390,18 D
ogfto2020 09/10/2020 0000 00000 855 BB CP Automatico S P 70 528.106,58C 0,00 C
13/10/2020 13/10/2020 0000 13138 132 Emissão Ordem Bancária 3697 446.033,61 D
13/10/2020 13/10/2020 0000 00000 855 BB CP Automatico S P 70 446033610 0,00 C
1410/2020 14/10/2020 8347 14884438 TED 802.870 190.500,00 D
1410/2020 14/10/2020 0000 13138 132 Emissão Ordem Bancária 3.698 449.383,80 D
14/10/2020 14/10/2020 0000 11162631 Desbl Judicial-Bacen Jud 91.400.001 190.500,00 C
1410/2020 14/10/2020 0000 00000 855 BB CP Automatico S P 70 449.383,80 C 0,00 C
15/10/2020 15/10/2020 0000 14175 623 DOC Crédito em Conta 832.618 1.438,00 C
15/10/2020 15/10/2020 0000 14056 632 Ordem Bancária 4.165.720.000.001 | 570.026,36 C
15/10/2020 15/10/2020 0000 12334 920 Blog Judicial-Bacen Jud 12.011.092.140.401 8.680,00 *

15/10/2020 15/10/2020 0000 13138 132 Emissão Ordem Bancária 3.699 1.042.011,51 D
 

 

 

15/10/2020 15/10/2020 0000 11334 284 Blog Judicial-Bacen Jud 12.011.092.140.401 8.680,00 D
15/10/2020 15/10/2020 0000 | 00000 855 BB CP Automatico S P 70  479.22715C0,00C
16/10/2020 16/10/2020 0000 | 14056 632 Ordem Bancária 4.199.521.000.001 859.951,92 C
16/10/2020 16/10/2020 0000 14056 632 Ordem Bancária 4.199.737.000.001 10.285,00 C
16/10/2020 16/10/2020 0000 13138 132 Emissão Ordem Bancária 3.700 510.289,95 D
16/10/2020 16/10/2020 0000 | 00000 345 BB CP Automatico S P 70 359.946,97 D 0,00 C
19/10/2020 19/10/2020 0000 13138 132 Emissão Ordem Bancária 3.701 1.348.872,32 D
19/10/2020 19/10/2020 0000 | 00000 855 BB CP Automatico S P 70 1.348.872,32 C 0,00 C
20/10/2020 20/10/2020 0000 14138 972 ORDEM BANC CANCELADA 440.360.000 49,50C
20/10/2020 20/10/2020 0000 13138 132 Emissão Ordem Bancária 3.702 1.260.088,30 D
20/10/2020 20/10/2020 0000 11162 631 Desbl Judicial-Bacen Jud 92.570.001 8.680,00 C
20/10/2020 20/10/2020 0000 13373 500 Transf Depósito Judicial 12.011.092.140.402 8.680,00 D
20/10/2020 20/10/2020 0000 | 00000 855 BB CP Automatico S P 70 1.260.038,80 C 0,00 C
21/10/2020 21/10/2020 0000 | 14056 632 Ordem Bancária 4.256.534.000.001 341.136,78 C
21/10/2020 21/10/2020 0000 13138 132 Emissão Ordem Bancária 3.703 1.023.838,72 D
21/10/2020 21/10/2020 0000 13138 132 Emissão Ordem Bancária 3.704 663.590,52 D
21/10/2020 21/10/2020 0000 | 00000 855 BB CP Automatico S P 70 1.346.292,46C 0,00 C
22/10/2020 22/10/2020 0000 14138 972 ORDEM BANC CANCELADA 445.590.000 19.657,00 C
22/10/2020 22/10/2020 0000 | 14056 632 Ordem Bancária 4.280.625.000.001 500.000,00 C
22/10/2020 22/10/2020 0000 13138 132 Emissão Ordem Bancária 3.705 1.530.461,46D
22/10/2020 22/10/2020 0000 | 00000 855 BB CP Automatico S P 70 1.010.804,46C 0,00 C
23/10/2020 23/10/2020 0000 13138 132 Emissão Ordem Bancária 3.706 1.891.136,60 D
23/10/2020 23/10/2020 0000 | 00000 855 BB CP Automatico S P 70 1.891.136,60 C 0,00 C
26/10/2020 26/10/2020 0000 13138 132 Emissão Ordem Bancária 3.707 1.403.266,55 D
26/10/2020 26/10/2020 0000 | 00000 855 BB CP Automatico S P 70 1.403.266,55 C 0,00 C
27/10/2020 27/0/2020 0000 13138 132 Emissão Ordem Bancária 3.708 1.312.817,30 D
27/10/2020 27/10/2020 0000 | 00000 855 BB CP Automatico S P 70 1.312.817,30 C 0,00 C
28/10/2020 28/10/2020 0000 14173 900 Resgate Depósito Judicial 49.613.592 33.309,37 C
28/10/2020 28/10/2020 0000 14138 972 ORDEM BANC CANCELADA 455.790.000 198,00 C
28/10/2020 28/10/2020 0000 00000 345 BB CP Automatico S P 70 33.507,37 D 0,00 C
29/10/2020 29/10/2020 0000 13138 132 Emissão Ordem Bancária 3.709 1.202.936,50 D
29/10/2020 29/10/2020 0000 | 00000 855 BB CP Automatico S P 70 1.202.936,50 C 0,00 C
30/10/2020 30/10/2020 0000 14173 900 Resgate Depósito Judicial 49.633.761 25.338,33 C
30/10/2020 30/10/2020 0000 14138 972 ORDEM BANC CANCELADA 457.980.000 148,50 C
30/10/2020 30/10/2020 0000 13138 132 Emissão Ordem Bancária 3.710 580.821,01 D
30/10/2020 30/10/2020 0000 | 00000 855 BB CP Automatico S P 70  555.334,18C 0,00 C
31/10/2020 0000  00000855SALDO 0,00 C
Transação efetuada com sucesso por: JB599661 JOSE F CHAGAS.
Serviço de Atendimento ao Consumidor - SAC 0800 729 0722 Ouvidoria BB 0800 729 5678

Para deficientes auditivos 0800 729 0088
 

Cliente - Conta atual

G3361817187992121
18/05/2021 17:27:00

 

 

Agência 1618-7
Conta corrente 13581-X PB FES CUSTEIO SUS
Período do extrato 03/2021
Lançamentos
Dt balancete Dt. movimento Ag. origem Lote Histórico Documento. Valor R$ Saldo
26/02/2021 0000 00000 000 Saldo Anterior 0,00 C
01/03/2021 0000 14056632 Ordem Bancária 585.269.000.001 950.141,09 C
005304930001-71 DIRETORIA EXECUTIVA DO
01/03/2021 0000 00000345 BB CP Automatico S P 70 950.141,09D0,00 C
02/03/2021 0000 14056632 Ordem Bancária 605.415.000.001 60.000,00 C
005304930001-71 DIRETORIA EXECUTIVA DO
02/03/2021 0000 14056632 Ordem Bancária 605.484.000.001 | 60.000,00 C
005304930001-71 DIRETORIA EXECUTIVA DO
02/03/2021 0000 14056632 Ordem Bancária 607.162.000.001 100.981,93 €
005304930001-71 DIRETORIA EXECUTIVA DO
02/03/2021 0000 14056632 Ordem Bancária 607.191.000.001 | 100.981,93 €
005304930001-71 DIRETORIA EXECUTIVA DO
02/03/2021 0000 14056632 Ordem Bancária 609.951.000.001 150.000,00 C
005304930001-71 DIRETORIA EXECUTIVA DO
02/03/2021 0000 14056632 Ordem Bancária 613.061.000.001 12.555.277,69 C
005304930001-71 DIRETORIA EXECUTIVA DO
02/03/2021 0000 13138 132 Emissão Ordem Bancária 3.794 1.029.199,77 D
02/03/2021 0000 00000345 BB CP Automatico S P 70 11.998.041,78 D 0,00 C
03/03/2021 0000 14056632 Ordem Bancária 617.601.000.001 | 124.856,82 C
005304930001-71 DIRETORIA EXECUTIVA DO
03/03/2021 0000 14056632 Ordem Bancária 618.681.000.001 | 30.000,00 €
005304930001-71 DIRETORIA EXECUTIVA DO
03/03/2021 0000 14056632 Ordem Bancária 619.056.000.001 555.153,45 C
005304930001-71 DIRETORIA EXECUTIVA DO
03/03/2021 0000 12334920 Blog Judicial-Bacen Jud 12.107.030.640.202 50.832,78 *
03/03/2021 0000 12334920 Blog Judicial-Bacen Jud 12.107.187.810.301 34.600,00 *
03/03/2021 0000 12334920 Blog Judicial-Bacen Jud 12.107.192.900.401 9.459,00 *
03/03/2021 0000 13138 132 Emissão Ordem Bancária 3.795 674.668,21 D
03/03/2021 0000 11334284 Blog Judicial-Bacen Jud 12.107.030.640.202 50.832,78 D
03/03/2021 0000 11334284 Blog Judicial-Bacen Jud 12.107.187.810.301 | 34.600,00 D
03/03/2021 0000 11334284 Blog Judicial-Bacen Jud 12.107.192.900.401 9.459,00 D
03/03/2021 0000 00000855 BB CP Automatico S P 70 59.549,72C0,00C
04/03/2021 0000 14138632 Ordem Bancária 202.103.040.007.688 636,48 C
073129120001-48 PB-SEC DE ESTADO DAS F
04/03/2021 0000 13138 132 Emissão Ordem Bancária 3.796 723.11380D
04/03/2021 0000 00000855 BB CP Automatico S P 70 722.477,32C0,00C
05/03/2021 0000 14173900 Resgate Depósito Judicial 51.312.91 4.500,00 C
05/03/2021 0000 14173900 Resgate Depósito Judicial 51.321.734  77.88432C
05/03/2021 0000 14138972 ORDEM BANC CANCELADA 52.470.000 2.000,00 €
05/03/2021 0000 13138 132 Emissão Ordem Bancária 3.797 931.039,17 D
05/03/2021 0000 11162631 Desbl Judicial-Bacen Jud 97.580.001 | 34.600,00 C
05/03/2021 0000 11162631 Desbl Judicial-Bacen Jud 97.590.001 9.459,00 C
05/03/2021 0000 13373500 Transf Depósito Judicial 12.107.187.810.301 | 34.600,00 D
05/03/2021 0000 13373500 Transf Depósito Judicial 12.107.192.900.401 9.459,00 D
05/03/2021 0000 00000855 BB CP Automatico S P 70 846.654,85C0,00C
08/03/2021 0000 14056632 Ordem Bancária 741.360.000.001 570.026,36 C
005304930001-71 DIRETORIA EXECUTIVA DO
08/03/2021 0000 12334920 Blog Judicial-Bacen Jud 12.107.836.090.301 33.982,00 *
08/03/2021 0000 13138 132 Emissão Ordem Bancária 3.798 533.321,44D
08/03/2021 0000 11334284 Blog Judicial-Bacen Jud 12.107.836.090.301 | 33.982,00 D
08/03/2021 0000 00000 345 BB CP Automatico S P 70 2.722,92 D0,00 C
09/03/2021

09/03/2021
09/03/2021
09/03/2021
10/03/2021

10/03/2021

10/03/2021
10/03/2021
10/03/2021
10/03/2021
10/03/2021
10/03/2021
11/03/2021
11/03/2021
11/03/2021
11/03/2021
11/03/2021
11/03/2021
12/03/2021
12/03/2021
12/03/2021
12/03/2021
12/03/2021
12/03/2021
12/03/2021
12/03/2021
12/03/2021
15/03/2021
15/03/2021

15/03/2021
15/03/2021
16/03/2021

16/03/2021

16/03/2021
16/03/2021
17/03/2021
17/03/2021
17/03/2021
18/03/2021
18/03/2021

18/03/2021
18/03/2021
19/03/2021
19/03/2021
19/03/2021
19/03/2021
19/03/2021

19/03/2021
19/03/2021
22/03/2021
22/03/2021
22/03/2021
22/03/2021
22/03/2021
22/03/2021
22/03/2021
23/03/2021

0151

0000
0000
0000
0000

0000

0000
0000
0000
0000
0000
0000
0000
0000
0000
0000
0000
0000
0000
0000
0000
0000
0000
0000
0000
0000
0000
0000
0000

0000
0000
0000

0000

0000
0000
0000
0000
0000
0000
0000

0000
0000
0000
0000
0000
0000
0000

0000
0000
0000
0000
0000
0000
0000
0000
0000
0000

99020 875 Transferido da poupança 151.510.070.051
09/03 0151 70051-7 GILSON DA COST
14138972 ORDEM BANC CANCELADA 55.070.000
13138 132 Emissão Ordem Bancária 3.799
00000 855 BB CP Automatico S P 70
14056 632 Ordem Bancária 768.774.000.001
005304930001-71 DIRETORIA EXECUTIVA DO
14056 632 Ordem Bancária 769.349.000.001
005304930001-71 DIRETORIA EXECUTIVA DO
12334 920 Blog Judicial-Bacen Jud 12.108.132.410.101
12334 920 Blog Judicial-Bacen Jud 12.108.240.610.101
13138 132 Emissão Ordem Bancária 3.800
11334 284 Blog Judicial-Bacen Jud 12.108.132.410.101
11334 284 Blog Judicial-Bacen Jud 12.108.240.610.101
00000 855 BB CP Automatico S P 70
14138972 ORDEM BANC CANCELADA 57.760.000
14138972 ORDEM BANC CANCELADA 57.770.000
14138972 ORDEM BANC CANCELADA 57.790.000
14138972 ORDEM BANC CANCELADA 64.010.000
13138 132 Emissão Ordem Bancária 3.801
00000 855 BB CP Automatico S P 70
14173 900 Resgate Depósito Judicial 51.443.632
14138972 ORDEM BANC CANCELADA 63.510.000
14138972 ORDEM BANC CANCELADA 64.350.000
13138 132 Emissão Ordem Bancária 3.802
11162631 Desbl Judicial-Bacen Jud 97.850.001
11162631 Desbl Judicial-Bacen Jud 98.140.001
11162631 Desbl Judicial-Bacen Jud 98.150.001
13373 500 Transf Depósito Judicial 12.107.836.090.302
00000 855 BB CP Automatico S P 70
14138972 ORDEM BANC CANCELADA 64.360.000
14056 632 Ordem Bancária 846.790.000.001
005304930001-71 DIRETORIA EXECUTIVA DO
13138 132 Emissão Ordem Bancária 3.803
00000 855 BB CP Automatico S P 70
14056 632 Ordem Bancária 849.960.000.001
005304930001-71 DIRETORIA EXECUTIVA DO
14056 632 Ordem Bancária 850.781.000.001
005304930001-71 DIRETORIA EXECUTIVA DO
13138 132 Emissão Ordem Bancária 3.804
00000 345 BB CP Automatico S P 70
14173 900 Resgate Depósito Judicial 51.491.290
13138 132 Emissão Ordem Bancária 3.805
00000 855 BB CP Automatico S P 70
14138972 ORDEM BANC CANCELADA 76.380.000
14138 632 Ordem Bancária 202.103.180.007.262
073129120001-48 PB-SEC DE ESTADO DAS F
13138 132 Emissão Ordem Bancária 3.806
00000 855 BB CP Automatico S P 70
14173 900 Resgate Depósito Judicial 51.546.239
14173 900 Resgate Depósito Judicial 51.556.217
14138972 ORDEM BANC CANCELADA 73.830.000
14138972 ORDEM BANC CANCELADA 74.280.000
14056 632 Ordem Bancária 900.750.000.001
005304930001-71 DIRETORIA EXECUTIVA DO
13138 132 Emissão Ordem Bancária 3.808
00000 345 BB CP Automatico S P 70
14173 900 Resgate Depósito Judicial 51.560.371
14173 900 Resgate Depósito Judicial 51.579.336
14138972 ORDEM BANC CANCELADA 79.430.000
14138972 ORDEM BANC CANCELADA 79.470.000
14138972 ORDEM BANC CANCELADA 81.190.000
13138 132 Emissão Ordem Bancária 3.809
00000 855 BB CP Automatico S P 70
13138 132 Emissão Ordem Bancária 3.810

198,00 C

696,00 C
1.624.164,92 D
1.623.270,92 C 0,00 C

22.500,00 C

25.036,81 C

1.098,00 *
1.614,50 *
992.068,22 D
1.098,00 D
1.614,50 D
947.243,91 C 0,00 C
63.960,00 C
4.153,79C
1.200,53 €C
396,00 C
852.816,07 D
783.105,75 C 0,00 C
338,08 C
569,25 C
1.386,00 C
380.908,50 D
33.982,00 C
1.098,00 C
1.614,50 C
33.982,00 D
375.902,67 C 0,00 C
22.603,18 C
178,76 C

7.689.552,51 D
7.666.770,57 C 0,00 C
2.736.000,00 C

1.536.000,00 C

353.261,93 D
3.918.738,07 D 0,00 C
98.569,03 C
1.247.297,41 D
1.148.728,38 C 0,00 C
67,81 C
14.689,60 C

4.683.526,32 D
4.668.768,91 C 0,00 C
26.668,05 C
89.930,99 C
1.185,36 C
2.872,50C
894.856,29 C

702.625,52 D
312.887,67 D 0,00 C
822,55 €
7.103,41 C
3.900,00 C
5.316,01 C
148,50C
1.241.378,59 D
1.224.088,12 C 0,00 C
1.720.570,77 D
23/03/2021 0000 00000 855 BB CP Automatico S P 70
24/03/2021 0000 14173900 Resgate Depósito Judicial 51.617.232
24/03/2021 0000 14173900 Resgate Depósito Judicial 51.617.283
24/03/2021 0000 14173900 Resgate Depósito Judicial 51.618.798
24/03/2021 0000 14138972 ORDEM BANC CANCELADA 87.200.000
24/03/2021 0000 14138972 ORDEM BANC CANCELADA 90.390.000
24/03/2021 0000 14056 632 Ordem Bancária 943.290.000.001
005304930001-71 DIRETORIA EXECUTIVA DO
24/03/2021 0000 14056 632 Ordem Bancária 943.330.000.001
005304930001-71 DIRETORIA EXECUTIVA DO
24/03/2021 0000 13138 132 Emissão Ordem Bancária 3.811
24/03/2021 0000 00000 345 BB CP Automatico S P 70
25/03/2021 0000 14056 632 Ordem Bancária 952.310.000.001
005304930001-71 DIRETORIA EXECUTIVA DO
25/03/2021 0000 14056 632 Ordem Bancária 960.527.000.001
005304930001-71 DIRETORIA EXECUTIVA DO
25/03/2021 0000 | 12334920 Blog Judicial-Bacen Jud 12.110.615.870.101
25/03/2021 0000 13138 132 Emissão Ordem Bancária 3.813
25/03/2021 0000 | 11334284 Blog Judicial-Bacen Jud 12.110.615.870.101
25/03/2021 0000 00000 345 BB CP Automatico S P 70
26/03/2021 0000 14138972 ORDEM BANC CANCELADA 97.560.000
26/03/2021 0000 | 14056 632 Ordem Bancária 971.541.000.001
005304930001-71 DIRETORIA EXECUTIVA DO
26/03/2021 0000 14056 632 Ordem Bancária 979.238.000.001
005304930001-71 DIRETORIA EXECUTIVA DO
26/03/2021 0000 13138 132 Emissão Ordem Bancária 3.814
26/03/2021 0000 00000 855 BB CP Automatico S P 70
29/03/2021 0000 14138972 ORDEM BANC CANCELADA 101.440.000
29/03/2021 0000 14138632 Ordem Bancária 202.103.290.040.106
073129120001-48 PB-SEC DE ESTADO DAS F
29/03/2021 0000 13138 132 Emissão Ordem Bancária 3.815
29/03/2021 0000 11162631 Desbl Judicial-Bacen Jud 99.040.001
29/03/2021 0000 13373500 Transf Depósito Judicial 12.110.615.870.103
29/03/2021 0000 00000 855 BB CP Automatico S P 70
30/03/2021 0000 14138972 ORDEM BANC CANCELADA 102.700.000
30/03/2021 0000 13138 132 Emissão Ordem Bancária 3.816
30/03/2021 0000 | 00000 855 BB CP Automatico S P 70
31/03/2021 0000 13138 132 Emissão Ordem Bancária 3.817
31/03/2021 0000 00000 855 BB CP Automatico S P 70
31/03/2021 0000 00000999SALDO

1.720.570,77 C 0,00 C
168,17 C
2.133,41 C
22.637,22 C
3.900,00 C
82,50C
893,80 C

1.536.000,00 C

1.293.709,47 D
272.105,63 D 0,00 C
2.736.000,00 C

22.962,50 C

9.800,00 *
2.364.154,28 D
9.800,00 D
385.008,22 D 0,00 C
82,50C
1.296.000,00 C

24.475,00 C

5.272.917,11 D
3.952.359,61 C 0,00 C
297,00 C

80.000,00 C

1.444.863,35 D
9.800,00 C
9.800,00 D

1.364.568,35 C 0,00 C
1.584,00 C

849.201,69 D
847.617,69 C 0,00 C

1.376.274,05 D

1.376.274,05 C
0,00 C

 

 

Transação efetuada com sucesso por: JB599661 JOSE F CHAGAS.

Serviço de Atendimento ao Consumidor - SAC 0800 729 0722

Ouvidoria BB 0800 729 5678
Para deficientes auditivos 0800 729 0088
 

Cliente - Conta atual

G3361817187992121
18/05/2021 17:26:48

 

 

Agência 1618-7
Conta corrente 13581-X PB FES CUSTEIO SUS
Período do extrato 01/2021
Lançamentos
Dt balancete Dt. movimento Ag. origem Lote Histórico Documento. Valor R$ Saldo
30/12/2020 0000 00000 000 Saldo Anterior 0,00 C
04/01/2021 0000 14056 632 Ordem Bancária 5.803.811.000.001 316.270,67 C
005304930001-71 DIRETORIA EXECUTIVA DO
04/01/2021 0000 00000 345 BB CP Automatico S P 70 316.270,87 D 0,00 C
07/01/2021 0000 13105 393 TED Transf.Eletr.Disponiv 10.701 41657191 D
287 0435 003609595000175 FUNDO ESTADUA
07/01/2021 0000 13105 393 TED Transf.Eletr.Disponiv 10.702  4348160D
287 0435 003609595000175 FUNDO ESTADUA
07/01/2021 0000 13105 393 TED Transf.Eletr.Disponiv 10.703  2404383D
237 0435 003609595000175 FUNDO ESTADUA
07/01/2021 0000 13105 393 TED Transf.Eletr.Disponiv 10.704 | 67.53663D
287 0435 003609595000175 FUNDO ESTADUA
07/01/2021 0000 13105 393 TED Transf.Eletr.Disponiv 10.705 — 14.689,60D
237 0435 003609595000175 FUNDO ESTADUA
07/01/2021 0000 00000 855 BB CP Automatico S P 70 566.323,57 0,00 C
08/01/2021 0000 14173 900 Resgate Depósito Judicial 50.595.698 33.483,40 C
08/01/2021 0000 14056 632 Ordem Bancária 51.071.000.008 25.018.031,86 C
005304930001-71 DIRETORIA EXECUTIVA DO
08/01/2021 0000 00000 345 BB CP Automatico S P 70 25.051.515,26 D 0,00 C
11/01/2021 0000 14056 632 Ordem Bancária 56.205.000.001 11.882.405,64 C
005304930001-71 DIRETORIA EXECUTIVA DO
11/01/2021 0000 00000 345 BB CP Automatico S P 70 1.882.405,64 D 0,00 C
14/01/2021 0000 14173 900 Resgate Depósito Judicial 50.664.664 1.764,95 C
14/01/2021 0000 11162 631 Desbl Judicial-Bacen Jud 95.390.001 1.458,72 C
14/01/2021 0000 13373 500 Transf Depósito Judicial 12.018.945.000.402 1.458,72D
14/01/2021 0000 00000 345 BB CP Automatico S P 70 1.764,95 D 0,00 C
19/01/2021 0000 14056 632 Ordem Bancária 119.081.000.001 | 30.000,00 €
005304930001-71 DIRETORIA EXECUTIVA DO
19/01/2021 0000 00000 345 BB CP Automatico S P 70 30.000,00 D 0,00 C
20/01/2021 0000 13138 132 Emissão Ordem Bancária 3763 208.362,00 D
20/01/2021 0000 00000 855 BB CP Automatico S P 70 208.362,00 C 0,00 C
21/01/2021 0000 14138 972 ORDEM BANC CANCELADA 60.000 792,00 C
21/01/2021 0000 13138 132 Emissão Ordem Bancária 3764 140.151,82D
21/01/2021 0000 00000 855 BB CP Automatico S P 70 139.359,82C 0,00 C
25/01/2021 0000 14056 632 Ordem Bancária 161.598.000.001 | 570.026,36 C
005304930001-71 DIRETORIA EXECUTIVA DO
25/01/2021 0000 12334 920 Blog Judicial-Bacen Jud 12.101.687.450.401 53.000,00 *
25/01/2021 0000 13138 132 Emissão Ordem Bancária 3766 224255,97D
25/01/2021 0000 13138 132 Emissão Ordem Bancária 3767 851.549,38 D
25/01/2021 0000 11334 284 Blog Judicial-Bacen Jud 12.101.687.450.401 | 53.000,00 D
25/01/2021 0000 00000 855 BB CP Automatico S P 70  558.778,99C 0,00 C
26/01/2021 0000 14056 632 Ordem Bancária 176.318.000.001 | 570.026,36 C
005304930001-71 DIRETORIA EXECUTIVA DO
26/01/2021 0000 12334 920 Blog Judicial-Bacen Jud 12.101.978.280.601 52.500,00 *
26/01/2021 0000 13138 132 Emissão Ordem Bancária 3768 259.208,91 D
26/01/2021 0000 11334 284 Blog Judicial-Bacen Jud 12.101.978.280.601 | 52.500,00D
26/01/2021 0000 00000 345 BB CP Automatico S P 70 258.81745D0,00C
27/01/2021 0000 14138 972 ORDEM BANC CANCELADA 6.280.000 792,00
27/01/2021 0000 14173 900 Resgate Depósito Judicial 50.804.469 3.201,55 C
27/01/2021 0000 14056 632 Ordem Bancária 187.003.000.001 | 22.500,00 €

005304930001-71 DIRETORIA EXECUTIVA DO
27/01/2021 0000 14056 632 Ordem Bancária

194.386.000.001 | 150.000,00 C

005304930001-71 DIRETORIA EXECUTIVA DO

27/01/2021 0000 13138 132 Emissão Ordem Bancária 3.769 148.259,37 D
27/01/2021 0000 | 11162 631 Desbl Judicial-Bacen Jud 96.000.001 53.000,00 C
27/01/2021 0000 13373 500 Transf Depósito Judicial 12.101.687.450.402 53.000,00 D
27/01/2021 0000 | 00000 345 BB CP Automatico S P 70 28.234,18 D 0,00 C
28/01/2021 0000 14138 972 ORDEM BANC CANCELADA 5.210.000 1.534,50 C
28/01/2021 0000 14173 900 Resgate Depósito Judicial 50.823.770 6.003,58 C
28/01/2021 0000 13138 132 Emissão Ordem Bancária 3.770  991.61449D
28/01/2021 0000 | 00000 855 BB CP Automatico S P 70 984.076,41 C 0,00 C
29/01/2021 0000 | 14056 632 Ordem Bancária 211.815.000.001 124.856,82 C
005304930001-71 DIRETORIA EXECUTIVA DO
29/01/2021 0000 13138 132 Emissão Ordem Bancária 3771 353.505,78 D
29/01/2021 0000 | 11162631 Desbl Judicial-Bacen Jud 96.030.001 52.500,00 C
29/01/2021 0000 13373 500 Transf Depósito Judicial 12.101.978.280.607 52.500,00 D
29/01/2021 0000 | 00000 855 BB CP Automatico S P 70  228.648,96C 0,00 C
31/01/2021 0000 00000999SALDO 0,00 C

 

 

 

Transação efetuada com sucesso por: JB599661 JOSE F CHAGAS.

Serviço de Atendimento ao Consumidor - SAC 0800 729 0722

Ouvidoria BB 0800 729 5678
Para deficientes auditivos 0800 729 0088
 

Cliente - Conta atual

G3361817187992121
18/05/2021 17:26:18

 

Agência

Conta corrente
Período do extrato

Lançamentos

1618-7

13581-X PB FES CUSTEIO SUS

09/2020

 

Dt balancete Dt. movimento Ag. origem Lote Histórico

31/08/2020
01/09/2020
01/09/2020
02/09/2020
02/09/2020
02/09/2020
02/09/2020
02/09/2020
02/09/2020
02/09/2020
02/09/2020
02/09/2020
03/09/2020
03/09/2020
03/09/2020
03/09/2020
03/09/2020
03/09/2020
04/09/2020
04/09/2020
08/09/2020
08/09/2020
08/09/2020
08/09/2020
08/09/2020
08/09/2020
08/09/2020
09/09/2020
09/09/2020
10/09/2020
10/09/2020
10/09/2020
10/09/2020
10/09/2020
11/09/2020
11/09/2020
14/09/2020
14/09/2020
14/09/2020
14/09/2020
15/09/2020
15/09/2020
15/09/2020
15/09/2020
16/09/2020
16/09/2020
16/09/2020
17/09/2020
17/09/2020
17/09/2020
18/09/2020

01/09/2020
01/09/2020
02/09/2020
02/09/2020
02/09/2020
02/09/2020
02/09/2020
02/09/2020
02/09/2020
02/09/2020
02/09/2020
03/09/2020
03/09/2020
03/09/2020
03/09/2020
03/09/2020
03/09/2020
04/09/2020
04/09/2020
08/09/2020
08/09/2020
08/09/2020
08/09/2020
08/09/2020
08/09/2020
08/09/2020
09/09/2020
09/09/2020
10/09/2020
10/09/2020
10/09/2020
10/09/2020
10/09/2020
11/09/2020
11/09/2020
14/09/2020
14/09/2020
14/09/2020
14/09/2020
15/09/2020
15/09/2020
15/09/2020
15/09/2020
16/09/2020
16/09/2020
16/09/2020
17/09/2020
17/09/2020
17/09/2020
18/09/2020

0000
0000
0000
0000
0000
0000
0000
0000
0000
0000
0000
0000
0000
0000
0000
0000
0000
0000
0000
0000
0000
0000
0000
0000
0000
0000
0000
0000
0000
0000
0000
0000
0000
0000
0000
0000
8347
0000
0000
0000
0000
0000
0000
0000
0000
0000
0000
0000
0000
0000
0000

00000 000 Saldo Anterior

13138 132 Emissão Ordem Bancária
00000 855 BB CP Automatico S P
14056 632 Ordem Bancária

14056 632 Ordem Bancária

14056 632 Ordem Bancária

12334 920 Blog Judicial-Bacen Jud
12334 920 Blog Judicial-Bacen Jud
13138 132 Emissão Ordem Bancária
11334 284 Blog Judicial-Bacen Jud
11334 284 Blog Judicial-Bacen Jud
00000 345 BB CP Automatico S P
14138972 ORDEM BANC CANCELADA
14056 632 Ordem Bancária

14056 632 Ordem Bancária

14056 632 Ordem Bancária

13138 132 Emissão Ordem Bancária
00000 345 BB CP Automatico S P
13138 132 Emissão Ordem Bancária
00000 855 BB CP Automatico S P
14173 900 Resgate Depósito Judicial
14173 900 Resgate Depósito Judicial
14056 632 Ordem Bancária

14056 632 Ordem Bancária

14056 632 Ordem Bancária

13138 132 Emissão Ordem Bancária
00000 855 BB CP Automatico S P
13138 132 Emissão Ordem Bancária
00000 855 BB CP Automatico S P
14173 900 Resgate Depósito Judicial
14173 900 Resgate Depósito Judicial
14138972 ORDEM BANC CANCELADA
13138 132 Emissão Ordem Bancária
00000 855 BB CP Automatico S P
13138 132 Emissão Ordem Bancária
00000 855 BB CP Automatico S P
10782911 Depósito bloquead.1d útil
14173 900 Resgate Depósito Judicial
14138972 ORDEM BANC CANCELADA
00000 345 BB CP Automatico S P
14056 632 Ordem Bancária

13138 132 Emissão Ordem Bancária
00000 855 BB CP Automatico S P
10846 631 Desbloqueio de depósito
14138972 ORDEM BANC CANCELADA
13138 132 Emissão Ordem Bancária
00000 855 BB CP Automatico S P
14173 900 Resgate Depósito Judicial
13138 132 Emissão Ordem Bancária
00000 855 BB CP Automatico S P
14173 900 Resgate Depósito Judicial

Documento

3.663

70
3.453.599.000.001
3.454.089.000.001
3.454.121.000.001
12.006.757.680.101
12.006.802.910.101
3.665
12.006.757.680.101
12.006.802.910.101
70

348.800.000
3.462.134.000.001
3.463.335.000.001
3.467.336.000.001
3.667

70

3.668

70

48.831.355
48.888.412
3.539.905.000.001
3.540.105.000.001
3.540.182.000.001
3.670

70

3.672

70

48.937.053
48.940.416
357.460.000
3.673

70

3.674

70

1.147.838.088
48.991.343
366.680.000

70
3.665.555.000.001
3.675

70

1.147.838.088
371.770.000

3.676

70

49.058.134

3.677

70

49.013.154

Valor R$ Saldo
0,00 C
820.171,35 D
820.171,35 C 0,00 C
20.343,15 C
11.989.978,76 C
150.000,00 C
14.100,00 *
55.453,14 *
495.683,80 D
14.100,00 D
55.453,14D
11.595.084,97 D 0,00 C
680,00 C
124.856,82 C
30.000,00 C
22.500,00 C
120.421,07 D
57.615,75 D 0,00 C
104.390,15 D
104.390,15 C 0,00 C
2.294,91 C
216,09C
522.801,90 C
522.801,90 C
25.036,81 C
1.439.697,14 D
366.545,53 C 0,00 C
2.441.180,39 D
2.441.180,39 C 0,00 C
1.265,66 C
19.239,78 C
99,00 C
1.269.361,51 D
1.248.757,07 C 0,00 C
929.858,23 D
929.858,23 C 0,00 C
1.350,00 *
270,60 C
1.782,00 C
2.052,60 D 0,00 C
7.755,00 C
617.307,82 D
608.202,82 C
1.350,00 C 0,00 C
15.130,40 C
662.842,56 D
647.712,16C 0,00 C
26.631,15 C
1.317.578,93 D
1.290.945,78 C 0,00 C
5.878,35 C
 

 

 

18/09/2020 18/09/2020 0000 14138972 ORDEM BANC CANCELADA 376.700.000 28.170,00 C
18/09/2020 18/09/2020 0000 | 14056 632 Ordem Bancária 3.718.290.000.001 | 840.445,71 C
18/09/2020 18/09/2020 0000 | 12334920 Blog Judicial-Bacen Jud 12.008.146.700.401 31.950,00 *
18/09/2020 18/09/2020 0000 12334920 Blog Judicial-Bacen Jud 12.008.162.950.601 58.755,00 *
18/09/2020 18/09/2020 0000 | 12334920 Blog Judicial-Bacen Jud 12.008.304.660.401 190.500,00 *
18/09/2020 18/09/2020 0000 | 12334920 Blog Judicial-Bacen Jud 12.008.320.980.301 1.528,35 *
18/09/2020 18/09/2020 0000 13138 132 Emissão Ordem Bancária 3.678 1.340.982,31 D
18/09/2020 18/09/2020 0000 11334284 Blog Judicial-Bacen Jud 12.008.146.700.401 31.950,00 D
18/09/2020 18/09/2020 0000 | 11334284 Blog Judicial-Bacen Jud 12.008.162.950.601 58.755,00 D
18/09/2020 18/09/2020 0000 | 11334284 Blog Judicial-Bacen Jud 12.008.304.660.401 | 190.500,00 D
18/09/2020 18/09/2020 0000 | 11334284 Blog Judicial-Bacen Jud 12.008.320.980.301 1.528,35 D
18/09/2020 18/09/2020 0000 00000 855 BB CP Automatico S P 70 749.221,60C0,00 C
21/09/2020 21/09/2020 0000 13138 132 Emissão Ordem Bancária 3.679  391.802,49D
21/09/2020 21/09/2020 0000 00000 855 BB CP Automatico S P 70 391.802,49C0,00 C
22/09/2020 22/09/2020 0000 14138972 ORDEM BANC CANCELADA 383.320.000 297,00 C
22/09/2020 22/09/2020 0000 14138972 ORDEM BANC CANCELADA 383.420.000 25,00 C
22/09/2020 22/09/2020 0000 14138972 ORDEM BANC CANCELADA 383.440.000 40,00 C
22/09/2020 22/09/2020 0000 13138 132 Emissão Ordem Bancária 3.680 679.889,47 D
22/09/2020 22/09/2020 0000 00000 855 BB CP Automatico S P 70 679.527,47C0,00 C
23/09/2020 23/09/2020 0000 13138 132 Emissão Ordem Bancária 3.681 1.241.699,06 D
23/09/2020 23/09/2020 0000 | 00000 855 BB CP Automatico S P 70 1.241.699,06 C 0,00 C
24/09/2020 24/09/2020 0000 14138972 ORDEM BANC CANCELADA 390.430.000 148,50 C
24/09/2020 24/09/2020 0000 13138 132 Emissão Ordem Bancária 3.682 1.782.561,16D
24/09/2020 24/09/2020 0000 00000 855 BB CP Automatico S P 70 1.782.412,66C 0,00 C
25/09/2020 25/09/2020 0000 14138972 ORDEM BANC CANCELADA 389.200.000 580,00 C
25/09/2020 25/09/2020 0000 14138972 ORDEM BANC CANCELADA 390.460.000 198,00 C
25/09/2020 25/09/2020 0000 14056 632 Ordem Bancária 3.820.784.000.001 15.000,00 C
25/09/2020 25/09/2020 0000 | 14056 632 Ordem Bancária 3.822.982.000.001 | 569.490,11 C
25/09/2020 25/09/2020 0000 13138 132 Emissão Ordem Bancária 3.684 899.951,92D
25/09/2020 25/09/2020 0000 00000 855 BB CP Automatico S P 70 314.683,81C0,00 C
28/09/2020 28/09/2020 0000 14138972 ORDEM BANC CANCELADA 394.510.000 1.732,50 C
28/09/2020 28/09/2020 0000 14138972 ORDEM BANC CANCELADA 394.520.000 123,75 C
28/09/2020 28/09/2020 0000 14138972 ORDEM BANC CANCELADA 394.610.000 792,00 C
28/09/2020 28/09/2020 0000 14056 632 Ordem Bancária 3.850.555.000.001 | 341.694,07 C
28/09/2020 28/09/2020 0000 13138 132 Emissão Ordem Bancária 3.685 524.709,78D
28/09/2020 28/09/2020 0000 00000 855 BB CP Automatico S P 70  180.367,46C 0,00 C
29/09/2020 29/09/2020 3277 | 99015870 Transferência recebida 553.277.000.007.584 74,24C
29/09/2020 29/09/2020 0000 13138 132 Emissão Ordem Bancária 3.686 1.669.304,61 D
29/09/2020 29/09/2020 0000 00000 855 BB CP Automatico S P 70 1.669.230,37 C 0,00 C
30/09/2020 30/09/2020 0000 14056 632 Ordem Bancária 3.886.737.000.001 30.000,00 C
30/09/2020 30/09/2020 0000 13138 132 Emissão Ordem Bancária 3.688 1.972.561,98 D
30/09/2020 30/09/2020 0000 11162631 Desbl Judicial-Bacen Jud 91.410.001 1.528,35 C
30/09/2020 30/09/2020 0000 13373500 Transf Depósito Judicial 12.008.320.980.301 1.528,35 D
30/09/2020 30/09/2020 0000 00000 855 BB CP Automatico S P 70 1.942.561,98C
30/09/2020 0000 00000855SALDO 0,00 €
Transação efetuada com sucesso por: JB599661 JOSE F CHAGAS.
Serviço de Atendimento ao Consumidor - SAC 0800 729 0722 Ouvidoria BB 0800 729 5678

Para deficientes auditivos 0800 729 0088
G3361817187992121
18/05/2021 17:25:53

 

Cliente - Conta atual

 

Agência 1618-7
Conta corrente 13581-X PB FES CUSTEIO SUS
Período do extrato 05/2020

 

Lançamentos

Dt balancete Dt. movimento Ag. origem Lote Histórico Documento. Valor R$ Saldo
30/04/2020 0000 00000 000 Saldo Anterior 0,00 C
04/05/2020 04/05/2020 0000 14138972 ORDEM BANC CANCELADA 112.320.000 780,00 C
04/05/2020 04/05/2020 0000 14056632 Ordem Bancária 1.606.086.000.001 950.000,00 C
04/05/2020 04/05/2020 0000 12334920 Blog Judicial-Bacen Jud 12.050.841.790.101 92.167,68 *
04/05/2020 04/05/2020 0000 13138 132 Emissão Ordem Bancária 3.542 248.852,75D
04/05/2020 04/05/2020 0000 11334284 Blog Judicial-Bacen Jud 12.050.841.790.101 92.167,68 D
04/05/2020 04/05/2020 0000 00000345 BB CP Automatico S P 70 609.759,57 D0,00C
05/05/2020 05/05/2020 0000 14056632 Ordem Bancária 1.637.982.000.001 20.343,15 C
05/05/2020 05/05/2020 0000 14056632 Ordem Bancária 1.638.586.000.001 124.856,82
05/05/2020 05/05/2020 0000 14056632 Ordem Bancária 1.638.806.000.001 150.000,00 C
05/05/2020 05/05/2020 0000 14056632 Ordem Bancária 1.639.142.000.001 | 22.500,00 C
05/05/2020 05/05/2020 0000 14056632 Ordem Bancária 1.639.155.000.001 11.910.544,89 C
05/05/2020 05/05/2020 0000 14056632 Ordem Bancária 1.641.855.000.001 25.036,81 C
05/05/2020 05/05/2020 0000 14056632 Ordem Bancária 1.642.130.000.001 | 30.000,00 €
05/05/2020 05/05/2020 0000 13138 132 Emissão Ordem Bancária 3.543 189.106,66 D
05/05/2020 05/05/2020 0000 00000345 BB CP Automatico S P 70 12.094.175,01 D 0,00 C
06/05/2020 06/05/2020 0000 14056632 Ordem Bancária 1.651.446.000.001 110.000,00 C
06/05/2020 06/05/2020 0000 12334920 Blog Judicial-Bacen Jud 12.051.438.630.101 66.566,64 *
06/05/2020 06/05/2020 0000 12334920 Blog Judicial-Bacen Jud 12.051.489.080.901 43.433,36 *
06/05/2020 06/05/2020 0000 13138 132 Emissão Ordem Bancária 3.544 802.563,70 D
06/05/2020 06/05/2020 0000 11334284 Blog Judicial-Bacen Jud 12.051.438.630.101 66.566,64 D
06/05/2020 06/05/2020 0000 11334284 Blog Judicial-Bacen Jud 12.051.489.080.901 43.433,36 D
06/05/2020 06/05/2020 0000 00000855 BB CP Automatico S P 70  802.563,70C0,00C
07/05/2020 07/05/2020 0000 13138 132 Emissão Ordem Bancária 3.545 1.516.494,21 D
07/05/2020 07/05/2020 0000 11162631 Desbl Judicial-Bacen Jud 86.570.001  92.167,68C
07/05/2020 07/05/2020 0000 13373500 Transf Depósito Judicial 12.050.841.790.101 92.167,68 D
07/05/2020 07/05/2020 0000 00000855 BB CP Automatico S P 70 1.516.494,21 00,00 C
08/05/2020 08/05/2020 0000 13138 132 Emissão Ordem Bancária 3.546 557.737,22D
08/05/2020 08/05/2020 0000 11162631 Desbl Judicial-Bacen Jud 86.660.001  66.566,64C
08/05/2020 08/05/2020 0000 00000855 BB CP Automatico S P 70 491.170,58C0,00 C
11/05/2020 11/05/2020 0000 14138972 ORDEM BANC CANCELADA 121.040.000  13.815,36C
11/05/2020 11/05/2020 0000 14138972 ORDEM BANC CANCELADA 121.830.000 3.129,12C
11/05/2020 11/05/2020 0000 13138 132 Emissão Ordem Bancária 3.547 1.208.377,63 D
11/05/2020 11/05/2020 0000 11162631 Desbl Judicial-Bacen Jud 86.670.001 43.433,36 C
11/05/2020 11/05/2020 0000 13373500 Transf Depósito Judicial 12.051.489.080.901 43.433,36 D
11/05/2020 11/05/2020 0000 00000855 BB CP Automatico S P 70 1.191.433,15 C0,00 C
12/05/2020 12/05/2020 0000 14056632 Ordem Bancária 1.781.930.000.001 5.184.000,00 C
12/05/2020 12/05/2020 0000 14056632 Ordem Bancária 1.781.952.000.001 720.000,00 C
12/05/2020 12/05/2020 0000 12334920 Blog Judicial-Bacen Jud 12.053.899.460.101 2.881,90 *
12/05/2020 12/05/2020 0000 13138 132 Emissão Ordem Bancária 3.548 796.122,20D
12/05/2020 12/05/2020 0000 11334284 Blog Judicial-Bacen Jud 12.053.899.460.101 2.881,90 D
12/05/2020 12/05/2020 0000 00000345 BB CP Automatico S P 70 5.104.995,90 D 0,00 C
13/05/2020 13/05/2020 0000 14173900 Resgate Depósito Judicial 47.215.474 24970
13/05/2020 13/05/2020 0000 14173900 Resgate Depósito Judicial 47.215.659 96,00 C
13/05/2020 13/05/2020 0000 14173900 Resgate Depósito Judicial 47.216.823 2.010,74C
13/05/2020 13/05/2020 0000 14056632 Ordem Bancária 1.814.412.000.001 4.800.000,00 C
13/05/2020 13/05/2020 0000 13138 132 Emissão Ordem Bancária 3.550 1.445.402,99 D
13/05/2020 13/05/2020 0000 00000345 BB CP Automatico S P 70 3.356.728,72D 0,00 C
14/05/2020 14/05/2020 0000 13138 132 Emissão Ordem Bancária 3.552 138.444,55D
14/05/2020 14/05/2020 0000 00000855 BB CP Automatico S P 70 138.444,55 00,00 C

15/05/2020 15/05/2020 0000 13138132 Emissão Ordem Bancária 3.554  329.878,78D
 

 

15/05/2020 15/05/2020 0000 11162631 Desbl Judicial-Bacen Jud 86.940.001 2.881,90 C
15/05/2020 15/05/2020 0000 00000 855 BB CP Automatico S P 70 326.996,88C 0,00 C
18/05/2020 18/05/2020 0000 14173900 Resgate Depósito Judicial 47.263.189 27.732,72 C
18/05/2020 18/05/2020 0000 14173900 Resgate Depósito Judicial 47.264.739 14.381,13 C
18/05/2020 18/05/2020 0000 13138 132 Emissão Ordem Bancária 3.555 258.971,84D
18/05/2020 18/05/2020 0000 00000 855 BB CP Automatico S P 70 216.857,99C0,00 C
19/05/2020 19/05/2020 0000 14138972 ORDEM BANC CANCELADA 140.370.000 1.485,00 C
19/05/2020 19/05/2020 0000 14056 632 Ordem Bancária 1.877.309.000.001 | 651.345,62 C
19/05/2020 19/05/2020 0000 14056 632 Ordem Bancária 1.877.429.000.001 313.325,62 C
19/05/2020 19/05/2020 0000 | 14056 632 Ordem Bancária 1.878.828.000.001 4.597,50 C
19/05/2020 19/05/2020 0000 13138 132 Emissão Ordem Bancária 3.556 825.215,86D
19/05/2020 19/05/2020 0000 00000 345 BB CP Automatico S P 70 145.537,88D 0,00 C
20/05/2020 20/05/2020 0000 14138972 ORDEM BANC CANCELADA 143.010.000 3.570,00 C
20/05/2020 20/05/2020 0000 13138 132 Emissão Ordem Bancária 3.559 8.337.026,20 D
20/05/2020 20/05/2020 0000 00000 855 BB CP Automatico S P 70 8.333.456,20 C 0,00 C
21/05/2020 21/05/2020 0000 14138972 ORDEM BANC CANCELADA 144.150.000 840,00 C
21/05/2020 21/05/2020 0000 14138632 Ordem Bancária 202.005.200.002.800 25,00 C
21/05/2020 21/05/2020 0000 14138632 Ordem Bancária 202.005.200.002.801 25,00 C
21/05/2020 21/05/2020 0000 13138 132 Emissão Ordem Bancária 3.560  681.026,58D
21/05/2020 21/05/2020 0000 00000 855 BB CP Automatico S P 70 680.136,58C 0,00 C
22/05/2020 22/05/2020 0000 14173900 Resgate Depósito Judicial 47.323.354 912,80C
22/05/2020 22/05/2020 0000 14173900 Resgate Depósito Judicial 47.329.131 1,60C
22/05/2020 22/05/2020 0000 14138972 ORDEM BANC CANCELADA 147.430.000 2.460,00 C
22/05/2020 22/05/2020 0000 13138 132 Emissão Ordem Bancária 3.561 8.019.346,25 D
22/05/2020 22/05/2020 0000 00000 855 BB CP Automatico S P 70 8.015.971,85 C 0,00 C
25/05/2020 25/05/2020 0000 13138 132 Emissão Ordem Bancária 3.563 676.324,49D
25/05/2020 25/05/2020 0000 00000 855 BB CP Automatico S P 70 676.324,49C 0,00 C
26/05/2020 26/05/2020 0000 | 14056 632 Ordem Bancária 1.979.472.000.001 | 569.490,11 C
26/05/2020 26/05/2020 0000 | 14056 632 Ordem Bancária 1.980.401.000.001 | 144.847,95 C
26/05/2020 26/05/2020 0000 14056 632 Ordem Bancária 1.981.086.000.001 | 144.847,95 C
26/05/2020 26/05/2020 0000 13138 132 Emissão Ordem Bancária 3.564 12.770.465,36 D
26/05/2020 26/05/2020 0000 00000 855 BB CP Automatico S P 70 11.911.279,35 00,00 C
27/05/2020 27/05/2020 0000 13138 132 Emissão Ordem Bancária 3.565 599.017,05 D
27/05/2020 27/05/2020 0000 00000 855 BB CP Automatico S P 70  599.017,05C 0,00 C
28/05/2020 28/05/2020 0000 14138972 ORDEM BANC CANCELADA 158.220.000 2.460,00 C
28/05/2020 28/05/2020 0000 14138972 ORDEM BANC CANCELADA 158.230.000 7.084,80 C
28/05/2020 28/05/2020 0000 14138972 ORDEM BANC CANCELADA 158.810.000 26.002,80 C
28/05/2020 28/05/2020 0000 13138 132 Emissão Ordem Bancária 3.566 318.948,43 D
28/05/2020 28/05/2020 0000 00000 855 BB CP Automatico S P 70 283.400,83C0,00 C
29/05/2020 29/05/2020 0000 13138 132 Emissão Ordem Bancária 3.567 275.743,05 D
29/05/2020 29/05/2020 0000 00000 855 BB CP Automatico S P 70 275.743,05C0,00 C
31/05/2020 0000 00000855SALDO 0,00 C
Transação efetuada com sucesso por: JB599661 JOSE F CHAGAS.
Serviço de Atendimento ao Consumidor - SAC 0800 729 0722 Ouvidoria BB 0800 729 5678

Para deficientes auditivos 0800 729 0088
 

Cliente - Conta atual

G3361817187992121
18/05/2021 17:25:42

 

 

Agência 1618-7

Conta corrente 13581-X PB FES CUSTEIO SUS

Período do extrato 03/2020

Lançamentos

Dt balancete Dt. movimento Ag. origem Lote Histórico Documento. Valor R$ Saldo

28/02/2020 0000 00000 000 Saldo Anterior 0,00 C
02/03/2020 02/03/2020 0000 13138 132 Emissão Ordem Bancária 3493  11.787,67D
02/03/2020 02/03/2020 0000 00000855 BB CP Admin Supremo 70 — 11.787,67C0,00C
03/03/2020 03/03/2020 0000 14138972 ORDEM BANC CANCELADA 29.530.000 24,750
03/03/2020 03/03/2020 0000 14138972 ORDEM BANC CANCELADA 29.570.000 1.386,00 C
03/03/2020 03/03/2020 0000 13138 132 Emissão Ordem Bancária 3494 102.524,65D
03/03/2020 03/03/2020 0000 00000855 BB CP Admin Supremo 70 101.113,90C0,00 C
04/03/2020 04/03/2020 0000 14138972 ORDEM BANC CANCELADA 28.310.000 148,50 C
04/03/2020 04/03/2020 0000 14138972 ORDEM BANC CANCELADA 28.460.000 297,00 C
04/03/2020 04/03/2020 0000 14138972 ORDEM BANC CANCELADA 28.540.000 618,75C
04/03/2020 04/03/2020 0000 14138972 ORDEM BANC CANCELADA 29.210.000 66,40C
04/03/2020 04/03/2020 0000 14138972 ORDEM BANC CANCELADA 29.310.000 17481C
04/03/2020 04/03/2020 0000 14138972 ORDEM BANC CANCELADA 29.420.000 86,12C
04/03/2020 04/03/2020 0000 14138972 ORDEM BANC CANCELADA 29.430.000 225,25 C
04/03/2020 04/03/2020 0000 14138972 ORDEM BANC CANCELADA 29.880.000 4219C
04/03/2020 04/03/2020 0000 14056632 Ordem Bancária 721.372.000.001 | 30.000,00 €
04/03/2020 04/03/2020 0000 14056632 Ordem Bancária 721.804.000.001 124.856,82
04/03/2020 04/03/2020 0000 14056632 Ordem Bancária 722.467.000.001 150.000,00 C
04/03/2020 04/03/2020 0000 14056632 Ordem Bancária 738.689.000.001 734.892,52 C
04/03/2020 04/03/2020 0000 13138 132 Emissão Ordem Bancária 3.495 865.785,29D
04/03/2020 04/03/2020 0000 00000345 BB CP Admin Supremo 70 175.623,07D0,00C
05/03/2020 05/03/2020 0000 14138972 ORDEM BANC CANCELADA 29.930.000 479,53
05/03/2020 05/03/2020 0000 14138972 ORDEM BANC CANCELADA 29.970.000 249,58 C
05/03/2020 05/03/2020 0000 14056632 Ordem Bancária 745.534.000.001 12.209.310,37 C
05/03/2020 05/03/2020 0000 12334920 Blog Judicial-Bacen Jud 12.034.844.550.101 62.578,00 *
05/03/2020 05/03/2020 0000 13138 132 Emissão Ordem Bancária 3497 629.167,74D
05/03/2020 05/03/2020 0000 11334284 Blog Judicial-Bacen Jud 12.034.844.550.101 62.578,00 D
05/03/2020 05/03/2020 0000 00000345 BB CP Admin Supremo 70 1.518.293,74 D 0,00 C
06/03/2020 06/03/2020 0000 13138 132 Emissão Ordem Bancária 3.499 680.730,74 D
06/03/2020 06/03/2020 0000 00000855 BB CP Admin Supremo 70 680.730,74C0,00 C
09/03/2020 09/03/2020 0000 14056632 Ordem Bancária 840.523.000.001 | 22.500,00 C
09/03/2020 09/03/2020 0000 12334920 Blog Judicial-Bacen Jud 12.036.728.120.101 22.500,00 *
09/03/2020 09/03/2020 0000 13138 132 Emissão Ordem Bancária 3.501 441.853,97D
09/03/2020 09/03/2020 0000 11162631 Desbl Judicial-Bacen Jud 84.170.001 | 62.57800C
09/03/2020 09/03/2020 0000 13373500 Transf Depósito Judicial 12.034.844.550.101 | 62.578,00 D
09/03/2020 09/03/2020 0000 11334284 Blog Judicial-Bacen Jud 12.036.728.120.101 | 22.500,00 D
09/03/2020 09/03/2020 0000 00000855 BB CP Admin Supremo 70 441.853,97C0,00C
10/03/2020 10/03/2020 0000 14173900 Resgate Depósito Judicial 46.478.279 6,50C
10/03/2020 10/03/2020 0000 13138 132 Emissão Ordem Bancária 3.502  41.648,50D
10/03/2020 10/03/2020 0000 00000 855 BB CP Admin Supremo 70 41.64200C0,00C
11/03/2020 11/03/2020 0000 14138972 ORDEM BANC CANCELADA 39.520.000 2.326,50 C
11/03/2020 11/03/2020 0000 14138632 Ordem Bancária 202.003.110.008.176  204.691,14C
11/03/2020 11/03/2020 0000 13138 132 Emissão Ordem Bancária 3.503 145.779,29D
11/03/2020 11/03/2020 0000 11162631 Desbl Judicial-Bacen Jud 84.410.001 | 22.500,00 C
11/03/2020 11/03/2020 0000 00000345 BB CP Admin Supremo 70 | 83.738,35D0,00C
1203/2020 12/03/2020 0000 14173900 Resgate Depósito Judicial 46.537.684 2.306,74 C
1203/2020 12/03/2020 0000 14173900 Resgate Depósito Judicial 46.537.822 4.048,17 C
1203/2020 12/03/2020 0000 13138 132 Emissão Ordem Bancária 3.504 377.404,84D
12/03/2020 12/03/2020 0000 00000855 BB CP Admin Supremo 70 371.049,93C0,00C
13/03/2020 13/03/2020 0000 13138 132 Emissão Ordem Bancária 3.505 154.891,96D
13/03/2020 13/03/2020 0000 00000 855 BB CP Admin Supremo 70  154.891,96C0,00 C
 

 

16/03/2020 16/03/2020 0000 14138972 ORDEM BANC CANCELADA 42.810.000 148,50 C
16/03/2020 16/03/2020 0000 14138972 ORDEM BANC CANCELADA 42.850.000 49,50 C
16/03/2020 16/03/2020 0000 14138972 ORDEM BANC CANCELADA 43.310.000 120,00 C
16/03/2020 16/03/2020 0000 14138972 ORDEM BANC CANCELADA 43.330.000 120,00 C
16/03/2020 16/03/2020 0000 14138972 ORDEM BANC CANCELADA 43.360.000 80,00C
16/03/2020 16/03/2020 0000 14056 632 Ordem Bancária 946.005.000.001 | 569.490,11 C
16/03/2020 16/03/2020 0000 13138 132 Emissão Ordem Bancária 3.506 1.096.304,41 D
16/03/2020 16/03/2020 0000 00000 855 BB CP Admin Supremo 70 526.296,30 C 0,00 C
17/03/2020 17/03/2020 0000 14056 632 Ordem Bancária 978.896.000.001 8.195.718,00 C
17/03/2020 17/03/2020 0000 | 14056 632 Ordem Bancária 985.974.000.001 | 816.560,31 C
17/03/2020 17/03/2020 0000 | 12334920 Blog Judicial-Bacen Jud 12.043.739.010.502 1.239.357,98 *
17/03/2020 17/03/2020 0000 13138 132 Emissão Ordem Bancária 3.507  436.047,06D
17/03/2020 17/03/2020 0000 | 11334284 Blog Judicial-Bacen Jud 12.043.739.010.502 1.239.357,98 D
17/03/2020 17/03/2020 0000 00000 345 BB CP Admin Supremo 70 7.336.873,27 D 0,00 C
18/03/2020 18/03/2020 0000 14173900 Resgate Depósito Judicial 46.618.963 540,14C
18/03/2020 18/03/2020 0000 14056 632 Ordem Bancária 990.419.000.001 47.293,15 C
18/03/2020 18/03/2020 0000 14138632 Ordem Bancária 202.003.180.009.085 179.588,91 C|
18/03/2020 18/03/2020 0000 13138 132 Emissão Ordem Bancária 3.508 172.522,89D
18/03/2020 18/03/2020 0000 | 00000 345 BB CP Admin Supremo 70 54.899,31 D 0,00 C
19/03/2020 19/03/2020 0000 14138972 ORDEM BANC CANCELADA 47.100.000 742,50C
19/03/2020 19/03/2020 0000 11162631 Desbl Judicial-Bacen Jud 84.710.001 1.239.357,98 C
19/03/2020 19/03/2020 0000 13373500 Transf Depósito Judicial 12.043.739.010.501 1.239.357,98 D
19/03/2020 19/03/2020 0000 | 00000 345 BB CP Admin Supremo 70 742,50 D 0,00 C
20/03/2020 20/03/2020 0000 14138972 ORDEM BANC CANCELADA 48.430.000 50,00 C
20/03/2020 20/03/2020 0000 14138972 ORDEM BANC CANCELADA 48.680.000 321,75 C
20/03/2020 20/03/2020 0000 13138 132 Emissão Ordem Bancária 3.509 94.315,16D
20/03/2020 20/03/2020 0000 13138 132 Emissão Ordem Bancária 3.510 667.159,88D
20/03/2020 20/03/2020 0000 00000 855 BB CP Admin Supremo 70 761.103,29C0,00 C
24/03/2020 24/03/2020 0000 13138 132 Emissão Ordem Bancária 3.511 63.018,06 D
24/03/2020 24/03/2020 0000 00000 855 BB CP Admin Supremo 70 63.018,06 C 0,00 C
25/03/2020 25/03/2020 0000 13138 132 Emissão Ordem Bancária 3.512 785.42211D
25/03/2020 25/03/2020 0000 | 00000 855 BB CP Admin Supremo 70 785.422,11C0,00C
26/03/2020 26/03/2020 0000 14138972 ORDEM BANC CANCELADA 53.750.000 1.192,00 C
26/03/2020 26/03/2020 0000 13138 132 Emissão Ordem Bancária 3.513 1.139.761,97 D
26/03/2020 26/03/2020 0000 13138 132 Emissão Ordem Bancária 3.514 1.634.703,58 D
26/03/2020 26/03/2020 0000 | 00000 855 BB CP Admin Supremo 70 2.773.273,55 00,00 C
27/03/2020 27/03/2020 0000 14138972 ORDEM BANC CANCELADA 58.100.000 6.650,00 C
27/03/2020 27/03/2020 0000 13138 132 Emissão Ordem Bancária 3.516 1.689.361,76 D
27/03/2020 27/03/2020 0000 | 00000 855 BB CP Admin Supremo 70 1.682.711,76C0,00 C
30/03/2020 30/03/2020 0000 13138 132 Emissão Ordem Bancária 3.517 490.140,88 D
30/03/2020 30/03/2020 0000 | 00000 855 BB CP Admin Supremo 70 490.140,38 0,00 C
31/03/2020 31/03/2020 0000 14056 632 Ordem Bancária 1.182.540.000.001 1.604.626,52 C
31/03/2020 31/03/2020 0000 | 12334920 Blog Judicial-Bacen Jud 12.046.834.170.101 38.240,70 *
31/03/2020 31/03/2020 0000 13138 132 Emissão Ordem Bancária 3.518 335.895,59D
31/03/2020 31/03/2020 0000 | 11334284 Blog Judicial-Bacen Jud 12.046.834.170.101 38.240,70 D
31/03/2020 31/03/2020 0000 | 00000 345 BB CP Admin Supremo 70 1.230.490,29 D
31/03/2020 0000 00000345SALDO 0,00 C
Transação efetuada com sucesso por: JB599661 JOSE F CHAGAS.
Serviço de Atendimento ao Consumidor - SAC 0800 729 0722 Ouvidoria BB 0800 729 5678

Para deficientes auditivos 0800 729 0088
 

Cliente - Conta atual

G3361817187992121
18/05/2021 17:26:52

 

Agência 1618-7
Conta corrente 13581-X PB FES CUSTEIO SUS
Período do extrato 02/2021

 

Lançamentos
Dt balancete Dt. movimento Ag. origem Lote Histórico Documento. Valor R$ Saldo

29/01/2021 0000 00000 000 Saldo Anterior 0,00 C

01/02/2021 0000 13138 132 Emissão Ordem Bancária 3.772. 1.007.907,56 D

01/02/2021 0000 00000855 BB CP Automatico S P 70 1.007.907,56 0,00 C

02/02/2021 0000 14173900 Resgate Depósito Judicial 50.879.199 4.101,96 C

02/02/2021 0000 14056632 Ordem Bancária 260.106.000.001 555.153,45 C
005304930001-71 DIRETORIA EXECUTIVA DO

02/02/2021 0000 14056632 Ordem Bancária 260.422.000.001 555.153,45 C
005304930001-71 DIRETORIA EXECUTIVA DO

02/02/2021 0000 14056632 Ordem Bancária 260.518.000.001 150.000,00 C
005304930001-71 DIRETORIA EXECUTIVA DO

02/02/2021 0000 14056632 Ordem Bancária 263.305.000.001 124.856,82 C
005304930001-71 DIRETORIA EXECUTIVA DO

02/02/2021 0000 13138 132 Emissão Ordem Bancária 3.773 983.742,20D

02/02/2021 0000 00000345 BB CP Automatico S P 70 405.523,48D0,00 C

03/02/2021 0000 14056632 Ordem Bancária 271.379.000.001 11.882.405,64 C
005304930001-71 DIRETORIA EXECUTIVA DO

03/02/2021 0000 13138 132 Emissão Ordem Bancária 3.774 173.801,26D

03/02/2021 0000 00000345 BB CP Automatico S P 70 11.708.604,38 D 0,00 C

04/02/2021 8347 14884438 TED 19.094 58.755,00D
033 3984 19094337000133 PROGODS SOLUCO

04/02/2021 0000 13138 132 Emissão Ordem Bancária 3.775 2.234.687,14D

04/02/2021 0000 11162631 Desbl Judicial-Bacen Jud 91.390.001 58.755,00 C

04/02/2021 0000 00000855 BB CP Automatico S P 70 2.234.687,14C0,00 C

05/02/2021 0000 14056632 Ordem Bancária 339.486.000.001 30.000,00 C
005304930001-71 DIRETORIA EXECUTIVA DO

05/02/2021 0000 14056632 Ordem Bancária 340.516.000.001 | 22.500,00 €
005304930001-71 DIRETORIA EXECUTIVA DO

05/02/2021 0000 12334920 Blog Judicial-Bacen Jud 12.103.713.300.401 9.665,34 *

05/02/2021 0000 13138 132 Emissão Ordem Bancária 3.777 288.073,28D

05/02/2021 0000 11334284 Blog Judicial-Bacen Jud 12.103.713.300.401 9.665,34 D

05/02/2021 0000 00000855 BB CP Automatico S P 70 245.288,62C0,00C

08/02/2021 0000 14173900 Resgate Depósito Judicial 50.974.451 528,50 C

08/02/2021 0000 14056632 Ordem Bancária 375.507.000.001 | 25.036,81 C
005304930001-71 DIRETORIA EXECUTIVA DO

08/02/2021 0000 12334920 Blog Judicial-Bacen Jud 12.103.821.710.201 25.036,81 *

08/02/2021 0000 14138632 Ordem Bancária 202.102.080.026.871 | 14.800,00 C
073129120001-48 PB-SEC DE ESTADO DAS F

08/02/2021 0000 13138 132 Emissão Ordem Bancária 3.778 1.437.145,88D

08/02/2021 0000 11334284 Blog Judicial-Bacen Jud 12.103.821.710.201 | 25.036,81 D

08/02/2021 0000 00000855 BB CP Automatico S P 70 1.421.822,88 0,00 C

09/02/2021 0000 13138 132 Emissão Ordem Bancária 3.779 1.169.642,24D

09/02/2021 0000 11162631 Desbl Judicial-Bacen Jud 96.570.001 7.584,42 C

09/02/2021 0000 11162631 Desbl Judicial-Bacen Jud 96.570.002 2.080,92 €

09/02/2021 0000 13373500 Transf Depósito Judicial 12.103.713.300.404 7.58442D

09/02/2021 0000 00000855 BB CP Automatico S P 70 1.167.561,82C0,00 C

10/02/2021 0000 14138972 ORDEM BANC CANCELADA 23.660.000 49,50C

10/02/2021 0000 14138972 ORDEM BANC CANCELADA 23.800.000 1.534,50 C

10/02/2021 0000 14056632 Ordem Bancária 398.804.000.001 570.026,36 C
005304930001-71 DIRETORIA EXECUTIVA DO

10/02/2021 0000 13138 132 Emissão Ordem Bancária 3.780  408.743,59D

10/02/2021 0000 11162631 Desbl Judicial-Bacen Jud 96.610.001 25.036,81 C
 

 

10/02/2021 0000 13373500 Transf Depósito Judicial 12.103.821.710.203 25.036,81 D
10/02/2021 0000 00000 345 BB CP Automatico S P 70 167.866,77 DO,00 C
11/02/2021 0000 13138 132 Emissão Ordem Bancária 3.781 489.189,28D
11/02/2021 0000 00000 855 BB CP Automatico S P 70 489.189,28C 0,00 C
12/02/2021 0000 14173900 Resgate Depósito Judicial 51.056.559 4.036,81 C
12/02/2021 0000 13138 132 Emissão Ordem Bancária 3.782 714.121,34D
12/02/2021 0000 00000 855 BB CP Automatico S P 70  710.084,53C0,00 C
17/02/2021 0000 14138972 ORDEM BANC CANCELADA 28.120.000 792,00 C
17/02/2021 0000 13138 132 Emissão Ordem Bancária 3.783 1.994.427,70 D
17/02/2021 0000 00000 855 BB CP Automatico S P 70 1.993.635,70 C 0,00 C
18/02/2021 0000 14138972 ORDEM BANC CANCELADA 31.190.000 148,50 C
18/02/2021 0000 14173900 Resgate Depósito Judicial 51.108.669 1.132,12C
18/02/2021 0000 13138 132 Emissão Ordem Bancária 3.784 734.194,18D
18/02/2021 0000 00000 855 BB CP Automatico S P 70 732.913,56C0,00 C
19/02/2021 0000 13138 132 Emissão Ordem Bancária 3.786 379.066,30 D
19/02/2021 0000 00000 855 BB CP Automatico S P 70 379.066,30 C 0,00 C
22/02/2021 1156 | 99031 830 Depósito Online 11.568.554.200.092 148,50 C
1156-00-TEIXEIRA-TEIXEIRA,PB
22/02/2021 0000 | 14056 632 Ordem Bancária 493.115.000.001 18.617,50 C
005304930001-71 DIRETORIA EXECUTIVA DO
22/02/2021 0000 | 14056 632 Ordem Bancária 512.915.000.001 | 755.256,93 C
005304930001-71 DIRETORIA EXECUTIVA DO
22/02/2021 0000 13138 132 Emissão Ordem Bancária 3.788 1.597.925,55 D
22/02/2021 0000 00000 855 BB CP Automatico S P 70 823.902,62C0,00 C
23/02/2021 0000 13138 132 Emissão Ordem Bancária 3.789 1.234.293,50 D
23/02/2021 0000 00000 855 BB CP Automatico S P 70 1.234.293,50 C 0,00 C
24/02/2021 0000 14138972 ORDEM BANC CANCELADA 39.470.000 1.214,72C
24/02/2021 0000 13138 132 Emissão Ordem Bancária 3.790 1.339.865,97 D
24/02/2021 0000 00000 855 BB CP Automatico S P 70 1.338.651,25 00,00 C
25/02/2021 0000 13138 132 Emissão Ordem Bancária 3.791 1.598.747,31 D
25/02/2021 0000 00000 855 BB CP Automatico S P 70 1.598.747,31 00,00 C
26/02/2021 0000 14138972 ORDEM BANC CANCELADA 42.580.000 148,50 C
26/02/2021 0000 14138972 ORDEM BANC CANCELADA 42.610.000 866,25 C
26/02/2021 0000 13138 132 Emissão Ordem Bancária 3.793 1.015.366,66 D
26/02/2021 0000 | 00000 855 BB CP Automatico S P 70 1.014.351,91 00,00 C
28/02/2021 0000 00000999SALDO 0,00 C
Transação efetuada com sucesso por: JB599661 JOSE F CHAGAS.
Serviço de Atendimento ao Consumidor - SAC 0800 729 0722 Ouvidoria BB 0800 729 5678

Para deficientes auditivos 0800 729 0088
 

Cliente - Conta atual

G3361817187992121
18/05/2021 17:26:26

 

 

Agência 1618-7
Conta corrente 13581-X PB FES CUSTEIO SUS
Período do extrato 11/2020
Lançamentos
Dt balancete Dt. movimento Ag. origem Lote Histórico Documento. Valor R$ Saldo
30/10/2020 0000 00000 000 Saldo Anterior 0,00 C
03/11/2020 0000 13138 132 Emissão Ordem Bancária 3.711 -925.861,79D
03/11/2020 0000 00000855 BB CP Automatico S P 70 925.861,79C0,00C
04/11/2020 0000 14175976 TED-Pag Fomecedores 752.373.927 816,75C
104 0737 6199573447 JULIANA PEREIR
04/11/2020 0000 14056632 Ordem Bancária 4.468.853.000.001 11.124.305,04 C
005304930001-71 DIRETORIA EXECUTIVA DO
04/11/2020 0000 14056632 Ordem Bancária 4.470.270.000.001 463.563,84 C
005304930001-71 DIRETORIA EXECUTIVA DO
04/11/2020 0000 14056632 Ordem Bancária 4.470.403.000.001 463.563,84 C
005304930001-71 DIRETORIA EXECUTIVA DO
04/11/2020 0000 14056632 Ordem Bancária 4.470.405.000.001 | 150.000,00 C
005304930001-71 DIRETORIA EXECUTIVA DO
04/11/2020 0000 14056632 Ordem Bancária 4.470.837.000.001 65.444,45 C
005304930001-71 DIRETORIA EXECUTIVA DO
04/11/2020 0000 14056632 Ordem Bancária 4.470.862.000.001 | 100.453,18
005304930001-71 DIRETORIA EXECUTIVA DO
04/11/2020 0000 14056632 Ordem Bancária 4.470.937.000.001 | 30.000,00 C
005304930001-71 DIRETORIA EXECUTIVA DO
04/11/2020 0000 13138 132 Emissão Ordem Bancária 3.712 1.022.110,46D
04/11/2020 0000 00000345 BB CP Automatico S P 70 11.376.086,64 D 0,00 C
05/11/2020 0000 14173900 Resgate Depósito Judicial 49.712.618 6.000,00 C
05/11/2020 0000 14173900 Resgate Depósito Judicial 49.720.776 27.467,85C
05/11/2020 0000 14138972 ORDEM BANC CANCELADA 464.750.000 6.756,64 C
05/11/2020 0000 14056632 Ordem Bancária 4.512.004.000.001 124.856,82
005304930001-71 DIRETORIA EXECUTIVA DO
05/11/2020 0000 13138 132 Emissão Ordem Bancária 3.713 1.062.988,63 D
05/11/2020 0000 00000855 BB CP Automatico S P 70 897.907,82C0,00C
06/11/2020 0000 14138972 ORDEM BANC CANCELADA 465.880.000 6.650,00 C
06/11/2020 0000 13138 132 Emissão Ordem Bancária 3.714 1.356.943,93 D
06/11/2020 0000 00000855 BB CP Automatico S P 70 1.350.293,93 0,00 C
09/11/2020 0000 14173900 Resgate Depósito Judicial 49.763.909 50,32C
09/11/2020 0000 13138 132 Emissão Ordem Bancária 3.715 727.25403D
09/11/2020 0000 00000855 BB CP Automatico S P 70 727.203,71C0,00C
10/11/2020 0000 13138 132 Emissão Ordem Bancária 3.716  530.181,15D
10/11/2020 0000 00000855 BB CP Automatico S P 70 530.181,15C0,00C
11/11/2020 0000 14173900 Resgate Depósito Judicial 49.822.765 29,78C
11/11/2020 0000 14138972 ORDEM BANC CANCELADA 475.350.000 3.564,00 C
11/11/2020 0000 14056632 Ordem Bancária 4.654.470.000.001 | 22.500,00 C
005304930001-71 DIRETORIA EXECUTIVA DO
11/11/2020 0000 14056632 Ordem Bancária 4.654.569.000.001 20.343,15 C
005304930001-71 DIRETORIA EXECUTIVA DO
11/11/2020 0000 12334920 Blog Judicial-Bacen Jud 12.014.331.730.201 42.843,15 *
11/11/2020 0000 13138 132 Emissão Ordem Bancária 3.717 825.729,26D
11/11/2020 0000 11334284 Blog Judicial-Bacen Jud 12.014.331.730.201 42.843,15D
11/11/2020 0000 00000855 BB CP Automatico S P 70 822.135,48C0,00C
12/11/2020 0000 14173900 Resgate Depósito Judicial 49.842.122 343,45 C
12/11/2020 0000 13138 132 Emissão Ordem Bancária 3.718 1.192.192,90 D
12/11/2020 0000 00000855 BB CP Automatico S P 70 1.191.849,45C0,00 C
13/11/2020 0000 13138 132 Emissão Ordem Bancária 3.719  632.486,69D
13/11/2020 0000 00000 855 BB CP Automatico S P 70  632.486,69C0,00 C
16/11/2020 0000 14056 632 Ordem Bancária

4.738.695.000.001 878.276,29C

005304930001-71 DIRETORIA EXECUTIVA DO

16/11/2020 0000 14056 632 Ordem Bancária 4.738.733.000.001 | 570.026,36 C
005304930001-71 DIRETORIA EXECUTIVA DO
16/11/2020 0000 13138 132 Emissão Ordem Bancária 3.721 579.353,05 D
16/11/2020 0000 00000 345 BB CP Automatico S P 70 868.949,60 D 0,00 C
17/11/2020 0000 14173900 Resgate Depósito Judicial 49.900.413 681,06C
17/11/2020 0000 14056 632 Ordem Bancária 4.754.553.000.001 25.036,81 C
005304930001-71 DIRETORIA EXECUTIVA DO
17/11/2020 0000 13138 132 Emissão Ordem Bancária 3.722 1.174.981,72D
17/11/2020 0000 11162631 Desbl Judicial-Bacen Jud 93.690.001 42.843,15 C
17/11/2020 0000 13373500 Transf Depósito Judicial 12.014.331.730.204 42.843,15 D
17/11/2020 0000 00000 855 BB CP Automatico S P 70 1.149.263,85 C 0,00 C
18/11/2020 0000 13138 132 Emissão Ordem Bancária 3.724  882.034,66D
18/11/2020 0000 00000 855 BB CP Automatico S P 70 882.034,66C 0,00 C
19/11/2020 0000 13138 132 Emissão Ordem Bancária 3.725 799.650,14D
19/11/2020 0000 | 00000 855 BB CP Automatico S P 70 799.650,14C0,00 C
20/11/2020 0000 14173900 Resgate Depósito Judicial 49.967.085 492,12C
20/11/2020 0000 14173900 Resgate Depósito Judicial 49.967.109 391,49C
20/11/2020 0000 14138972 ORDEM BANC CANCELADA 496.200.000 148,50 C
20/11/2020 0000 | 14056 632 Ordem Bancária 4.833.917.000.001 330.316,80 C
005304930001-71 DIRETORIA EXECUTIVA DO
20/11/2020 0000 13138 132 Emissão Ordem Bancária 3.726 1.864.700,13 D
20/11/2020 0000 00000 855 BB CP Automatico S P 70 1.533.351,22C 0,00 C
23/11/2020 0000 14138972 ORDEM BANC CANCELADA 495.990.000 148,50 C
23/11/2020 0000 14138972 ORDEM BANC CANCELADA 496.320.000 1.237,50 C
23/11/2020 0000 14138972 ORDEM BANC CANCELADA 496.440.000 148,50 C
23/11/2020 0000 14138972 ORDEM BANC CANCELADA 497.400.000 841,50C
23/11/2020 0000 13138 132 Emissão Ordem Bancária 3.728 1.588.717,43 D
23/11/2020 0000 | 00000 855 BB CP Automatico S P 70 1.586.341,43 C 0,00 C
24/11/2020 0000 14138972 ORDEM BANC CANCELADA 498.600.000 40,00 C
24/11/2020 0000 14138972 ORDEM BANC CANCELADA 498.610.000 40,00 C
24/11/2020 0000 14138972 ORDEM BANC CANCELADA 498.760.000 50,00 C
24/11/2020 0000 14138972 ORDEM BANC CANCELADA 498.770.000 25,00 C
24/11/2020 0000 13138 132 Emissão Ordem Bancária 3.729 1.886.884,23 D
24/11/2020 0000 00000 855 BB CP Automatico S P 70 1.886.729,23 C 0,00 C
25/11/2020 0000 14138972 ORDEM BANC CANCELADA 503.710.000 3.087,00 C
25/11/2020 0000 14138972 ORDEM BANC CANCELADA 503.730.000 3.574,00C
25/11/2020 0000 14138972 ORDEM BANC CANCELADA 507.100.000 330,00 C
25/11/2020 0000 | 14056 632 Ordem Bancária 4.917.566.000.001 10.780,00 C
005304930001-71 DIRETORIA EXECUTIVA DO
25/11/2020 0000 13138 132 Emissão Ordem Bancária 3.731 1.547.567,28D
25/11/2020 0000 00000 855 BB CP Automatico S P 70 1.529.796,28 C 0,00 C
26/11/2020 1369 | 99015870 Transferência recebida 551.369.000.057.447 280,50 C

26/11 1369 57447-3 CENTRAL DAS FR

26/11/2020 0000 13138 132 Emissão Ordem Bancária 3.732 3.043.961,54 D
26/11/2020 0000 00000 855 BB CP Automatico S P 70 3.043.681,04 C 0,00 C
27/11/2020 0000 14173900 Resgate Depósito Judicial 50.054.973 140,06 C
27/11/2020 0000 13138 132 Emissão Ordem Bancária 3.733 905.885,35 D
27/11/2020 0000 00000 855 BB CP Automatico S P 70 905.745,29C 0,00 C
30/11/2020 0000 14173900 Resgate Depósito Judicial 50.099.532 1.153,54 C
30/11/2020 0000 13138 132 Emissão Ordem Bancária 3.734  482.962,50D
30/11/2020 0000 00000 855 BB CP Automatico S P 70 481.808,96C
30/11/2020 0000 00000999SALDO 0,00 C

 

 

Transação efetuada com sucesso por: JB599661 JOSE F CHAGAS.

Serviço de Atendimento ao Consumidor - SAC 0800 729 0722

Ouvidoria BB 0800 729 5678
Para deficientes auditivos 0800 729 0088
 

Cliente - Conta atual

G3361817187992121
18/05/2021 17:26:04

 

Agência
Conta corrente
Período do extrato

Lançamentos

1618-7

13581-X PB FES CUSTEIO SUS

07/2020

 

Dt balancete Dt. movimento Ag. origem Lote Histórico

30/06/2020
01/07/2020
01/07/2020
02/07/2020
02/07/2020
02/07/2020
02/07/2020
02/07/2020
02/07/2020
02/07/2020
02/07/2020
02/07/2020
02/07/2020
02/07/2020
02/07/2020
03/07/2020
03/07/2020
06/07/2020
06/07/2020
06/07/2020
06/07/2020
06/07/2020
07/07/2020
07/07/2020
07/07/2020
08/07/2020
08/07/2020
09/07/2020
09/07/2020
09/07/2020
09/07/2020
10/07/2020
10/07/2020
13/07/2020
13/07/2020
13/07/2020
13/07/2020
14/07/2020
14/07/2020
14/07/2020
14/07/2020
15/07/2020
15/07/2020
15/07/2020
15/07/2020
15/07/2020
15/07/2020
15/07/2020
15/07/2020
16/07/2020
16/07/2020

01/07/2020
01/07/2020
02/07/2020
02/07/2020
02/07/2020
02/07/2020
02/07/2020
02/07/2020
02/07/2020
02/07/2020
02/07/2020
02/07/2020
02/07/2020
02/07/2020
03/07/2020
03/07/2020
06/07/2020
06/07/2020
06/07/2020
06/07/2020
06/07/2020
07/07/2020
07/07/2020
07/07/2020
08/07/2020
08/07/2020
09/07/2020
09/07/2020
09/07/2020
09/07/2020
10/07/2020
10/07/2020
13/07/2020
13/07/2020
13/07/2020
13/07/2020
14/07/2020
14/07/2020
14/07/2020
14/07/2020
15/07/2020
15/07/2020
15/07/2020
15/07/2020
15/07/2020
15/07/2020
15/07/2020
15/07/2020
16/07/2020
16/07/2020

0000
0000
0000
0000
0000
0000
0000
0000
0000
0000
0000
0000
0000
0000
0000
0000
0000
0000
0000
0000
0000
0000
0000
0000
0000
0000
0000
0000
0000
0000
0000
0000
0000
0000
0000
0000
0000
0000
0000
0000
0000
0000
0000
0000
0000
0000
0000
0000
0000
0000
0000

00000 000 Saldo Anterior

13138 132 Emissão Ordem Bancária
00000 855 BB CP Automatico S P
14173 900 Resgate Depósito Judicial
14138972 ORDEM BANC CANCELADA
14138972 ORDEM BANC CANCELADA
14138972 ORDEM BANC CANCELADA
14138972 ORDEM BANC CANCELADA
14138972 ORDEM BANC CANCELADA
14056 632 Ordem Bancária

14056 632 Ordem Bancária

14056 632 Ordem Bancária

14056 632 Ordem Bancária

13138 132 Emissão Ordem Bancária
00000 345 BB CP Automatico S P
13138 132 Emissão Ordem Bancária
00000 855 BB CP Automatico S P
14173 900 Resgate Depósito Judicial
14056 632 Ordem Bancária

14056 632 Ordem Bancária

13138 132 Emissão Ordem Bancária
00000 855 BB CP Automatico S P
14173 900 Resgate Depósito Judicial
13138 132 Emissão Ordem Bancária
00000 855 BB CP Automatico S P
13138 132 Emissão Ordem Bancária
00000 855 BB CP Automatico S P
14138972 ORDEM BANC CANCELADA
14138 632 Ordem Bancária

13138 132 Emissão Ordem Bancária
00000 855 BB CP Automatico S P
13138 132 Emissão Ordem Bancária
00000 855 BB CP Automatico S P
14138972 ORDEM BANC CANCELADA
14056 632 Ordem Bancária

13138 132 Emissão Ordem Bancária
00000 855 BB CP Automatico S P
14138972 ORDEM BANC CANCELADA
14056 632 Ordem Bancária

14056 632 Ordem Bancária

00000 345 BB CP Automatico S P
14056 632 Ordem Bancária

12334 920 Blog Judicial-Bacen Jud
12334 920 Blog Judicial-Bacen Jud
13138 132 Emissão Ordem Bancária
13138 132 Emissão Ordem Bancária
11334 284 Blog Judicial-Bacen Jud
11334 284 Blog Judicial-Bacen Jud
00000 345 BB CP Automatico S P
14138972 ORDEM BANC CANCELADA
14138972 ORDEM BANC CANCELADA

Documento

3.608

70

47.854.698
213.400.000
213.430.000
213.450.000
217.010.000
218.340.000
2.505.788.000.001
2.508.433.000.001
2.508.570.000.001
2.508.774.000.001
3.609

70

3.610

70

47.894.500
2.545.840.000.001
2.578.595.000.001
3.611

70

47.915.031

3.613

70

3.614

70

230.100.000

202.007.080.016.186

3.616

70

3.617

70

234.630.000
2.696.750.000.001
3.618

70

234.300.000
2.717.999.000.001
2.718.255.000.001
70
2.726.045.000.001
12.081.360.910.101
12.081.491.500.101
3.619

3.621
12.081.360.910.101
12.081.491.500.101
70

241.080.000
241.560.000

Valor R$ Saldo
0,00 C
783.458,50 D
783.458,50 C 0,00 C
1.249,83 C
15.840,00 C
15.840,00 C
15.840,00 C
3.786,75,
3.300,00 C
30.000,00 C
150.000,00 C
124.856,82 C
14.149.978,76 C
1.143.449,86 D
13.367.241,80 D 0,00 C
628.973,40 D
626.973,40 C 0,00 C
34.005,76 C
22.500,00 C
25.036,81 C
1.800.445,93 D
1.218.908,36 C 0,00 C
625,20 C
714.498,36 D
713.873,16C0,00 C
828.813,12D
828.813,12C0,00 C
2.940,19C
25,00C
1.357.146,77 D
1.854.181,58 00,00 C
946.415,81 D
946.415,81 C 0,00 C
148,50 C
651.345,62 C
1.518.143,12D
866.649,00 C 0,00 C
1.470,00 C
4.597,50 C
313.325,62 C
319.393,12 0,00 C
4.000.000,00 C
9.200,00 *
13.500,00 *
28.574,44 D
1.276.053,67 D
9.200,00 D
13.500,00 D
2.677.671,89 D0,00 C
5.696,38 C
456,30 C
 

16/07/2020 16/07/2020 0000 13138 132 Emissão Ordem Bancária
16/07/2020 16/07/2020 0000 00000 855 BB CP Automatico S P
17/07/2020 17/07/2020 0000 13138 132 Emissão Ordem Bancária
17/07/2020 17/07/2020 0000 11162631 Desbl Judicial-Bacen Jud
17/07/2020 17/07/2020 0000 11162631 Desbl Judicial-Bacen Jud
17/07/2020 17/07/2020 0000 13373500 Transf Depósito Judicial
17/07/2020 17/07/2020 0000 13373500 Transf Depósito Judicial
17/07/2020 17/07/2020 0000 00000 855 BB CP Automatico S P
20/07/2020 20/07/2020 0000 14138972 ORDEM BANC CANCELADA
20/07/2020 20/07/2020 0000 14138632 Ordem Bancária

20/07/2020 20/07/2020 0000 14138632 Ordem Bancária

20/07/2020 20/07/2020 0000 13138 132 Emissão Ordem Bancária
20/07/2020 20/07/2020 0000 00000 855 BB CP Automatico S P
21/07/2020 21/07/2020 0000 14056 632 Ordem Bancária

21/07/2020 21/07/2020 0000 13138 132 Emissão Ordem Bancária
21/07/2020 21/07/2020 0000 00000 855 BB CP Automatico S P
22/07/2020 22/07/2020 0000 14173900 Resgate Depósito Judicial
22/07/2020 22/07/2020 0000 14173900 Resgate Depósito Judicial
22/07/2020 22/07/2020 0000 14173900 Resgate Depósito Judicial
22/07/2020 22/07/2020 0000 14138972 ORDEM BANC CANCELADA
22/07/2020 22/07/2020 0000 13138 132 Emissão Ordem Bancária
22/07/2020 22/07/2020 0000 00000 855 BB CP Automatico S P
23/07/2020 23/07/2020 0000 14138972 ORDEM BANC CANCELADA
23/07/2020 23/07/2020 0000 14056 632 Ordem Bancária

23/07/2020 23/07/2020 0000 | 14056 632 Ordem Bancária

23/07/2020 23/07/2020 0000 14056 632 Ordem Bancária

23/07/2020 23/07/2020 0000 14056 632 Ordem Bancária

23/07/2020 23/07/2020 0000 | 14056 632 Ordem Bancária

23/07/2020 23/07/2020 0000 | 14056 632 Ordem Bancária

23/07/2020 23/07/2020 0000 14056 632 Ordem Bancária

23/07/2020 23/07/2020 0000 | 14056 632 Ordem Bancária

23/07/2020 23/07/2020 0000 14056 632 Ordem Bancária

23/07/2020 23/07/2020 0000 | 14056 632 Ordem Bancária

23/07/2020 23/07/2020 0000 14056 632 Ordem Bancária

23/07/2020 23/07/2020 0000 | 14056 632 Ordem Bancária

23/07/2020 23/07/2020 0000 13138 132 Emissão Ordem Bancária
23/07/2020 23/07/2020 0000 11162631 Desbl Judicial-Bacen Jud
23/07/2020 23/07/2020 0000 00000 345 BB CP Automatico S P
24/07/2020 24/07/2020 0000 13138 132 Emissão Ordem Bancária
24/07/2020 24/07/2020 0000 00000 855 BB CP Automatico S P
27/07/2020 27/07/2020 0000 13138 132 Emissão Ordem Bancária
27/07/2020 27/07/2020 0000 00000 855 BB CP Automatico S P
28/07/2020 28/07/2020 0000 13138 132 Emissão Ordem Bancária
28/07/2020 28/07/2020 0000 00000 855 BB CP Automatico S P
29/07/2020 29/07/2020 0000 14138972 ORDEM BANC CANCELADA
29/07/2020 29/07/2020 0000 14138972 ORDEM BANC CANCELADA
29/07/2020 29/07/2020 0000 13138 132 Emissão Ordem Bancária
29/07/2020 29/07/2020 0000 00000 855 BB CP Automatico S P
30/07/2020 30/07/2020 0000 14173900 Resgate Depósito Judicial
30/07/2020 30/07/2020 0000 13138 132 Emissão Ordem Bancária
30/07/2020 30/07/2020 0000 00000 855 BB CP Automatico S P
31/07/2020 31/07/2020 0000 14138972 ORDEM BANC CANCELADA
31/07/2020 31/07/2020 0000 13138 132 Emissão Ordem Bancária
31/07/2020 31/07/2020 0000 00000 855 BB CP Automatico S P
31/07/2020 0000 00000855SALDO

3.622 1.005.388,20 D
70  999.235,52C 0,00 C
3.623 1.819.292,52D

88.810.001 9.200,00 C
88.820.001 13.500,00 C
12.081.360.910.101 9.200,00 D
12.081.491.500.101 13.500,00 D

70 1.819.292,52C 0,00 C
245.850.000 28.170,00 C
202.007.170.010.707 225,00 C
202.007.170.010.708 75,00 C
3.625  915.603,80D

70 887.133,80C0,00 C
2.805.419.000.001 | 569.490,11 C
3.626  894.576,04D

70 325.085,93 C 0,00 C
48.149.893 63,18C
48.159.045 51,23C
48.169.049 28,24C
250.040.000 272,25 C

3.627 1.290.163,74D

70 1.289.748,84 C 0,00 C
259.050.000 1.732,50 C
2.832.071.000.001 | 100.453,18C
2.832.301.000.001 65.444,45 C
2.832.473.000.001 65.444,45 C
2.832.708.000.001 | 100.453,18
2.832.985.000.001 | 100.453,18C
2.845.715.000.001 | 100.453,18C
2.845.739.000.001 65.444,45 C
2.845.831.000.001 | 100.453,18C
2.846.060.000.001 65.444,45 C
2.846.179.000.001 | 100.453,18 C
2.846.394.000.001 65.444,45 C
2.846.471.000.001 65.444,45 C
3.628 1.152.121,49D
87.840.001  215.111,04C

70  60.107,83D0,00 C
3.630 1.967.285,62 D

70 1.967.285,62 C0,00 C
3.632 2.011.944,11 D

70 2.011.944,11 C0,00 C
3.634 1.657.392,75 D

70 1.657.392,75 C 0,00 C
273.210.000 3.019,50 C
273.880.000 2.376,00 C
3.636 1.104.248,43 D

70 1.098.852,93 C 0,00 C
48.288.477 4.893,00 C
3.637 1.033.021,83 D

70 1.028.128,83 C 0,00 C
282.890.000 2.574,00 C
3.639 2.094.898,26 D
70 2.092.324,26 C

0,00 C

 

 

Transação efetuada com sucesso por: JB599661 JOSE F CHAGAS.

Serviço de Atendimento ao Consumidor - SAC 0800 729 0722

Ouvidoria BB 0800 729 5678
 

Cliente - Conta atual

G3361817187992127
18/05/2021 17:26:11

 

Agência
Conta corrente

Período do extrato

Lançamentos

1618-7

13581-X PB FES CUSTEIO SUS

08/2020

 

Dt balancete Dt. movimento Ag. origem Lote Histórico

31/07/2020
03/08/2020
03/08/2020
03/08/2020
04/08/2020
04/08/2020
04/08/2020
04/08/2020
04/08/2020
04/08/2020
04/08/2020
04/08/2020
04/08/2020
04/08/2020
04/08/2020
05/08/2020
05/08/2020
05/08/2020
05/08/2020
05/08/2020
05/08/2020
06/08/2020
06/08/2020
06/08/2020
06/08/2020
06/08/2020
06/08/2020
06/08/2020
06/08/2020
07/08/2020
07/08/2020
07/08/2020
10/08/2020
10/08/2020
10/08/2020
10/08/2020
10/08/2020
11/08/2020
11/08/2020
12/08/2020
12/08/2020
12/08/2020
13/08/2020
13/08/2020
13/08/2020
14/08/2020
14/08/2020
17/08/2020
17/08/2020
17/08/2020
17/08/2020

03/08/2020
03/08/2020
03/08/2020
04/08/2020
04/08/2020
04/08/2020
04/08/2020
04/08/2020
04/08/2020
04/08/2020
04/08/2020
04/08/2020
04/08/2020
04/08/2020
05/08/2020
05/08/2020
05/08/2020
05/08/2020
05/08/2020
05/08/2020
06/08/2020
06/08/2020
06/08/2020
06/08/2020
06/08/2020
06/08/2020
06/08/2020
06/08/2020
07/08/2020
07/08/2020
07/08/2020
10/08/2020
10/08/2020
10/08/2020
10/08/2020
10/08/2020
11/08/2020
11/08/2020
12/08/2020
12/08/2020
12/08/2020
13/08/2020
13/08/2020
13/08/2020
14/08/2020
14/08/2020
17/08/2020
17/08/2020
17/08/2020
17/08/2020

0000
8347
0000
0000
0000
0000
0000
0000
0000
0000
0000
0000
0000
0000
0000
0000
0000
0000
0000
0000
0000
0000
0000
0000
0000
0000
0000
0000
0000
0000
0000
0000
0000
0000
0000
0000
0000
0000
0000
0000
0000
0000
0000
0000
0000
0000
0000
0000
0000
0000
0000

00000 000 Saldo Anterior

17349911 Depósito bloquead.1d útil
13138 132 Emissão Ordem Bancária
00000 855 BB CP Automatico S P
14173 900 Resgate Depósito Judicial
14173 900 Resgate Depósito Judicial
14056 632 Ordem Bancária

14056 632 Ordem Bancária

12334 920 Blog Judicial-Bacen Jud
12334 920 Blog Judicial-Bacen Jud
13138 132 Emissão Ordem Bancária
11334 284 Blog Judicial-Bacen Jud
11334 284 Blog Judicial-Bacen Jud
00000 345 BB CP Automatico S P
10846 631 Desbloqueio de depósito
14138972 ORDEM BANC CANCELADA
14056 632 Ordem Bancária

14056 632 Ordem Bancária

14056 632 Ordem Bancária

14056 632 Ordem Bancária

00000 345 BB CP Automatico S P
14138972 ORDEM BANC CANCELADA
13138 132 Emissão Ordem Bancária
13138 132 Emissão Ordem Bancária
11162631 Desbl Judicial-Bacen Jud
11162631 Desbl Judicial-Bacen Jud
13373 500 Transf Depósito Judicial
13373 500 Transf Depósito Judicial
00000 855 BB CP Automatico S P
14173 900 Resgate Depósito Judicial
13138 132 Emissão Ordem Bancária
00000 855 BB CP Automatico S P
14138972 ORDEM BANC CANCELADA
14138972 ORDEM BANC CANCELADA
14056 632 Ordem Bancária

13138 132 Emissão Ordem Bancária
00000 855 BB CP Automatico S P
13138 132 Emissão Ordem Bancária
00000 855 BB CP Automatico S P
14138 632 Ordem Bancária

13138 132 Emissão Ordem Bancária
00000 855 BB CP Automatico S P
14056 632 Ordem Bancária

13138 132 Emissão Ordem Bancária
00000 855 BB CP Automatico S P
13138 132 Emissão Ordem Bancária
00000 855 BB CP Automatico S P
14173 900 Resgate Depósito Judicial
14056 632 Ordem Bancária

14056 632 Ordem Bancária

13138 132 Emissão Ordem Bancária

Documento

1.147.744.500
3.640

70

48.359.081
48.359.127
2.982.055.000.001
2.982.084.000.001
12.090.927.290.501
12.091.197.200.501
3.641
12.090.927.290.501
12.091.197.200.501
70

1.147.744.500
288.840.000
2.986.950.000.001
2.987.217.000.001
2.987.899.000.001
2.987.932.000.001
70

292.890.000

3.642

3.643

89.530.001
89.540.001
12.090.927.290.501
12.091.197.200.501
70

48.418.217

3.644

70

294.500.000
296.010.000
3.101.791.000.001
3.645

70

3.646

70
202.008.110.008.565
3.648

70
3.157.721.000.001
3.649

70

3.650

70

48.564.577
3.205.925.000.001
3.216.933.000.001
3.651

Valor R$ Saldo
0,00 C
21.994,50 *
816.467,23 D
816.467,23 C 0,00 C
27.332,97 C
26.710,74 C
13.861.978,76C
20.343,15 C
15.998,00 *
19.560,00 *
822.067,28 D
15.998,00 D
19.560,00 D
13.100.734,84 D
21.994,50 C 0,00 C
1.014,75 C
22.500,00 C
150.000,00 C
30.000,00 C
124.856,82 C
328.371,57 D 0,00 C
14.612,40 C
686.437,85 D
995.385,78 D
15.998,00 C
19.560,00 C
15.998,00 D
19.560,00 D
1.667.211,23 0,00 C
11,49C
808.416,08 D
808.404,59 C 0,00 C
8.800,00 C
13.175,76 C
4.597,50 C
1.033.749,69 D
1.009.178,43 C 0,00 C
1.632.214,23 D
1.632.214,23 0,00 C
25,00C
617.068,01 D
617.043,01 C 0,00 C
210.030,33 C
1.461.206,71 D
1.251.176,38 0,00 C
492.387,31 D
492.387,31 C 0,00 C
18,24C
25.036,81 C
569.490,11 C
1.668.331,75 D
 

 

17/08/2020 17/08/2020 0000 00000 855 BB CP Automatico S P 70 1.073.786,59C 0,00 C
18/08/2020 18/08/2020 0000 14173900 Resgate Depósito Judicial 48.591.093 16.779,43 C
18/08/2020 18/08/2020 0000 14175976 TED-Crédito em Conta 430.695.127 22.000,00 C
18/08/2020 18/08/2020 0000 13138 132 Emissão Ordem Bancária 3.652 1.663.744,64 D
18/08/2020 18/08/2020 0000 00000 855 BB CP Automatico S P 70 1.624.965,21 C 0,00 C
19/08/2020 19/08/2020 0000 14138972 ORDEM BANC CANCELADA 315.650.000 346,50 C
19/08/2020 19/08/2020 0000 14138972 ORDEM BANC CANCELADA 315.710.000 15.130,40 C
19/08/2020 19/08/2020 0000 14056 632 Ordem Bancária 3.255.486.000.001 665.928,57 C
19/08/2020 19/08/2020 0000 13138 132 Emissão Ordem Bancária 3.653 2.367.815,61 D
19/08/2020 19/08/2020 0000 00000 855 BB CP Automatico S P 70 1.686.410,14C 0,00 C
20/08/2020 20/08/2020 0000 13138 132 Emissão Ordem Bancária 3.654 1.655.567,55 D
20/08/2020 20/08/2020 0000 00000 855 BB CP Automatico S P 70 1.655.567,55 C 0,00 C
21/08/2020 21/08/2020 0000 | 14056 632 Ordem Bancária 3.294.015.000.001 57.409.000,00 C
21/08/2020 21/08/2020 0000 | 12334920 Blog Judicial-Bacen Jud 12.000.541.010.101 83.997,00 *
21/08/2020 21/08/2020 0000 13138 132 Emissão Ordem Bancária 3.655 2.403.469,23 D
21/08/2020 21/08/2020 0000 11334284 Blog Judicial-Bacen Jud 12.000.541.010.101 83.997,00 D
21/08/2020 21/08/2020 0000 00000 345 BB CP Automatico S P 70 54.921.533,77 D 0,00 C
24/08/2020 24/08/2020 0000 14138972 ORDEM BANC CANCELADA 325.890.000 11.521,19C
24/08/2020 24/08/2020 0000 14175976 TED-Crédito em Conta 449.762.452 111,40 C
24/08/2020 24/08/2020 0000 13138 132 Emissão Ordem Bancária 3.656  871.051,99D
24/08/2020 24/08/2020 0000 | 00000 855 BB CP Automatico S P 70  859.419,40C 0,00 C
25/08/2020 25/08/2020 0000 13138 132 Emissão Ordem Bancária 3.657  517.523,46D
25/08/2020 25/08/2020 0000 | 00000 855 BB CP Automatico S P 70  517.523,46C0,00 C
26/08/2020 26/08/2020 0000 13138 132 Emissão Ordem Bancária 3.658 1.079.500,16 D
26/08/2020 26/08/2020 0000 11162631 Desbl Judicial-Bacen Jud 90.450.001 83.997,00 C
26/08/2020 26/08/2020 0000 13373500 Transf Depósito Judicial 12.000.541.010.101 83.997,00 D
26/08/2020 26/08/2020 0000 00000 855 BB CP Automatico S P 70 1.079.500,16 C 0,00 €
27/08/2020 27/08/2020 0000 13138 132 Emissão Ordem Bancária 3.660 674.066,01 D
27/08/2020 27/08/2020 0000 00000 855 BB CP Automatico S P 70 674.066,01 C0,00 C
28/08/2020 28/08/2020 0000 13138 132 Emissão Ordem Bancária 3.661 1.117.382,43 D
28/08/2020 28/08/2020 0000 00000 855 BB CP Automatico S P 70 1.117.382,43 C 0,00 C
31/08/2020 31/08/2020 0000 13138 132 Emissão Ordem Bancária 3.662  829.801,40D
31/08/2020 31/08/2020 0000 00000 855 BB CP Automatico S P 70 829.801,40C
31/08/2020 0000 00000855SALDO 0,00 C
Transação efetuada com sucesso por: JB599661 JOSE F CHAGAS.
Serviço de Atendimento ao Consumidor - SAC 0800 729 0722 Ouvidoria BB 0800 729 5678

Para deficientes auditivos 0800 729 0088
G3361817187992121
18/05/2021 17:27:09

 

Cliente - Conta atual

 

Agência 1618-7
Conta corrente 13581-X PB FES CUSTEIO SUS
Período do extrato 04/2021

 

Lançamentos
Dt balancete Dt. movimento Ag. origem Lote Histórico Documento. Valor R$ Saldo
31/03/2021 0000 00000 000 Saldo Anterior 0,00 C
01/04/2021 0000 14138972 ORDEM BANC CANCELADA 106.140.000 618,75C
01/04/2021 0000 13138 132 Emissão Ordem Bancária 3.819 1.346.568,87 D
01/04/2021 0000 00000855 BB CP Automatico S P 70 1.345.950,12C0,00 C
05/04/2021 0000 14056632 Ordem Bancária 1.058.615.000.001 12.438.961,21 C
005304930001-71 DIRETORIA EXECUTIVA DO
05/04/2021 0000 14056632 Ordem Bancária 1.063.646.000.001 | 22.500,00 C
005304930001-71 DIRETORIA EXECUTIVA DO
05/04/2021 0000 14056632 Ordem Bancária 1.065.352.000.001 150.000,00 C
005304930001-71 DIRETORIA EXECUTIVA DO
05/04/2021 0000 14056632 Ordem Bancária 1.068.939.000.001 | 570.026,36 C
005304930001-71 DIRETORIA EXECUTIVA DO
05/04/2021 0000 14056632 Ordem Bancária 1.069.050.000.001 124.856,82 C
005304930001-71 DIRETORIA EXECUTIVA DO
05/04/2021 0000 14056632 Ordem Bancária 1.069.069.000.001 25.036,81 C
005304930001-71 DIRETORIA EXECUTIVA DO
05/04/2021 0000 14056632 Ordem Bancária 1.073.165.000.001 | 30.000,00 C
005304930001-71 DIRETORIA EXECUTIVA DO
05/04/2021 0000 14138632 Ordem Bancária 202.104.050.031.906 9.480,00 C
073129120001-48 PB-SEC DE ESTADO DAS F
05/04/2021 0000 14138632 Ordem Bancária 202.104.050.031.907 | 198.250,00 C
073129120001-48 PB-SEC DE ESTADO DAS F
05/04/2021 0000 00000345 BB CP Automatico S P 70 13.569.111,20 D0,00 C
06/04/2021 0000 14173900 Resgate Depósito Judicial 51.747.801 5,58C
06/04/2021 0000 13138 132 Emissão Ordem Bancária 3.821 634.567,54D
06/04/2021 0000 00000855 BB CP Automatico S P 70  634.561,96C0,00 C
07/04/2021 0000 14173900 Resgate Depósito Judicial 51.755.177 676,33 C
07/04/2021 0000 13138 132 Emissão Ordem Bancária 3.822 1.457.719,16D
07/04/2021 0000 00000855 BB CP Automatico S P 70 1.457.042,83 C0,00 C
08/04/2021 0000 14138972 ORDEM BANC CANCELADA 115.420.000 7.527,60 C
08/04/2021 0000 13138 132 Emissão Ordem Bancária 3.823 674.825,43D
08/04/2021 0000 11162631 Desbl Judicial-Bacen Jud 97.570.001  50.832,78C
08/04/2021 0000 13373500 Transf Depósito Judicial 12.107.030.640.201 | 50.832,78 D
08/04/2021 0000 00000855 BB CP Automatico S P 70 667.297,83C0,00C
09/04/2021 0000 13138 132 Emissão Ordem Bancária 3.824  352.043,15D
09/04/2021 0000 00000855 BB CP Automatico S P 70 352.043,15C0,00C
12/04/2021 0000 13138 132 Emissão Ordem Bancária 3.825 353.483,82D
12/04/2021 0000 00000855 BB CP Automatico S P 70 353.483,82C0,00C
13/04/2021 0000 13138 132 Emissão Ordem Bancária 3.826 539.110,67 D
13/04/2021 0000 00000855 BB CP Automatico S P 70 539.110,67C0,00C
14/04/2021 0000 13138 132 Emissão Ordem Bancária 3.827 808.385,75 D
14/04/2021 0000 00000855 BB CP Automatico S P 70 808.385,75C0,00 C
15/04/2021 0000 14138972 ORDEM BANC CANCELADA 122.010.000 1.311,00C
15/04/2021 0000 13138 132 Emissão Ordem Bancária 3.828 321.963,86 D
15/04/2021 0000 13138 132 Emissão Ordem Bancária 3.829 667.865,61 D
15/04/2021 0000 00000855 BB CP Automatico S P 70 988.51847C0,00C
16/04/2021 0000 14173900 Resgate Depósito Judicial 51.915.072 4.900,00 C
16/04/2021 0000 14056632 Ordem Bancária 1.300.744.000.001 784.234,52 C
005304930001-71 DIRETORIA EXECUTIVA DO
16/04/2021 0000 14056632 Ordem Bancária 1.308.349.000.001  37.730,14C

005304930001-71 DIRETORIA EXECUTIVA DO
16/04/2021 0000 14056 632 Ordem Bancária 1.308.447.000.001
005304930001-71 DIRETORIA EXECUTIVA DO
16/04/2021 0000 14056 632 Ordem Banc 12 Sec Tes Nac 1.308.535.000.000
005304930001-71 DIRETORIA EXECUTIVA DO
16/04/2021 0000 | 12334920 Blog Judicial-Bacen Jud 12.113.374.840.801
16/04/2021 0000 13138 132 Emissão Ordem Bancária 3.830
16/04/2021 0000 11334284 Blog Judicial-Bacen Jud 12.113.374.840.801
16/04/2021 0000 00000 855 BB CP Automatico S P 70
19/04/2021 0000 14173900 Resgate Depósito Judicial 51.934.734
19/04/2021 0000 14138972 ORDEM BANC CANCELADA 127.150.000
19/04/2021 0000 14056 632 Ordem Bancária 1.324.918.000.001
005304930001-71 DIRETORIA EXECUTIVA DO
19/04/2021 0000 14138632 Ordem Bancária 202.104.190.051.851
073129120001-48 PB-SEC DE ESTADO DAS F
19/04/2021 0000 13138 132 Emissão Ordem Bancária 3.832
19/04/2021 0000 00000 855 BB CP Automatico S P 70
20/04/2021 0000 13138 132 Emissão Ordem Bancária 3.833
20/04/2021 0000 00000 855 BB CP Automatico S P 70
22/04/2021 0000 14138972 ORDEM BANC CANCELADA 134.410.000
22/04/2021 0000 14138972 ORDEM BANC CANCELADA 134.930.000
22/04/2021 0000 13138 132 Emissão Ordem Bancária 3.835
22/04/2021 0000 00000 855 BB CP Automatico S P 70
23/04/2021 0000 14138972 ORDEM BANC CANCELADA 137.130.000
23/04/2021 0000 13138 132 Emissão Ordem Bancária 3.836,
23/04/2021 0000 11162631 Desbl Judicial-Bacen Jud 99.840.001
23/04/2021 0000 13373500 Transf Depósito Judicial 12.113.374.840.801
23/04/2021 0000 00000 855 BB CP Automatico S P 70
26/04/2021 0000 14173900 Resgate Depósito Judicial 52.042.547
26/04/2021 0000 14138972 ORDEM BANC CANCELADA 143.190.000
26/04/2021 0000 13138 132 Emissão Ordem Bancária 3.897
26/04/2021 0000 00000 855 BB CP Automatico S P 70
27/04/2021 0000 13138 132 Emissão Ordem Bancária 3.838
27/04/2021 0000 00000 855 BB CP Automatico S P 70
28/04/2021 0000 14175976 TED-Crédito em Conta 132.224.884
083 1592 18791322000161 PHARMAGAS COME
28/04/2021 0000 13138 132 Emissão Ordem Bancária 3.839
28/04/2021 0000 00000 855 BB CP Automatico S P 70
29/04/2021 0000 13138 132 Emissão Ordem Bancária 3.840
29/04/2021 0000 00000 855 BB CP Automatico S P 70
30/04/2021 0000 14138972 ORDEM BANC CANCELADA 153.460.000
30/04/2021 0000 13138 132 Emissão Ordem Bancária 3.842
30/04/2021 0000 00000 855 BB CP Automatico S P 70
30/04/2021 0000 00000999SALDO

2.325,66 C

525,66 C

33.716,00 *
1.773.503,82 D
33.716,00 D
977.503,84 C 0,00 C
25,67C
767,25 C
229.785,60 C

69.720,00 C

726.198,06 D
425.899,54 C 0,00 C
997.301,82 D
997.301,82 C 0,00 C
198,00 C
198,00 C
1.320.041,14 D
1.319.645,14 C 0,00 C
7.500,00 C
589.499,33 D
33.716,00 C
33.716,00 D
581.999,33 C 0,00 C
146,51 C
371,25 C
1.985.581,03 D
1.985.063,27 C 0,00 C
851.450,01 D
851.450,01 C 0,00 C
27.552,00 C

700.167,28 D
672.615,28 C 0,00 C

630.601,80 D
630.601,80 C 0,00 C

750,74C

1.392.230,91 D

1.391.480,17 C
0,00 C

 

 

 

Transação efetuada com sucesso por: JB599661 JOSE F CHAGAS.

Serviço de Atendimento ao Consumidor - SAC 0800 729 0722

Ouvidoria BB 0800 729 5678
Para deficientes auditivos 0800 729 0088
 

Cliente - Conta atual

G3361817187992121
18/05/2021 17:26:33

 

Agência 1618-7
Conta corrente 13581-X PB FES CUSTEIO SUS
Período do extrato 12/2020

 

Lançamentos
Dt balancete Dt. movimento Ag. origem Lote Histórico Documento. Valor R$ Saldo

30/11/2020 0000 00000 000 Saldo Anterior 0,00 C

01/12/2020 0000 14173900 Resgate Depósito Judicial 50.123.115 6.550,49

01/12/2020 0000 14173900 Resgate Depósito Judicial 50.124.901 4.142,05 C

01/12/2020 0000 13138 132 Emissão Ordem Bancária 3.735 896.926,78 D

01/12/2020 0000 00000855 BB CP Automatico S P 70 886.284,24C0,00C

02/12/2020 0000 14056632 Ordem Bancária 5.065.437.000.001  228.787,92C
005304930001-71 DIRETORIA EXECUTIVA DO

02/12/2020 0000 14056632 Ordem Bancária 5.065.777.000.001 30.000,00 C
005304930001-71 DIRETORIA EXECUTIVA DO

02/12/2020 0000 14056632 Ordem Bancária 5.065.866.000.001 124.856,82 C
005304930001-71 DIRETORIA EXECUTIVA DO

02/12/2020 0000 14056632 Ordem Bancária 5.065.894.000.001  65.444,45C
005304930001-71 DIRETORIA EXECUTIVA DO

02/12/2020 0000 14056632 Ordem Bancária 5.065.951.000.001 150.000,00 C
005304930001-71 DIRETORIA EXECUTIVA DO

02/12/2020 0000 13138 132 Emissão Ordem Bancária 3.736 1.321.728,10D

02/12/2020 0000 00000855 BB CP Automatico S P 70 722.638,91 C0,00C

03/12/2020 0000 14138632 Ordem Bancária 202.012.020.011.648 1.705,00 C
036095950001-75 FUNDO ESTADUAL DE SAUD

03/12/2020 0000 13138 132 Emissão Ordem Bancária 3.738 1.428.311,80D

03/12/2020 0000 00000855 BB CP Automatico S P 70 1.421.606,80 00,00 C

04/12/2020 0000 14056632 Ordem Bancária 5.110.620.000.001  100.453,18C
005304930001-71 DIRETORIA EXECUTIVA DO

04/12/2020 0000 14138632 Ordem Bancária 202.012.030.013.275 75,00C
036095950001-75 FUNDO ESTADUAL DE SAUD

04/12/2020 0000 13138 132 Emissão Ordem Bancária 3.740 927.476,84D

04/12/2020 0000 00000855 BB CP Automatico S P 70 826.948,66C0,00C

07/12/2020 0000 14056632 Ordem Bancária 5.152.702.000.001 11.124.305,04 C
005304930001-71 DIRETORIA EXECUTIVA DO

07/12/2020 0000 14056632 Ordem Bancária 5.183.624.000.001 22.500,00 C
005304930001-71 DIRETORIA EXECUTIVA DO

07/12/2020 0000 14138632 Ordem Bancária 202.012.040.014.777 2.850,00 C
036095950001-75 FUNDO ESTADUAL DE SAUD

07/12/2020 0000 13138 132 Emissão Ordem Bancária 3.742 2.216.366,19D

07/12/2020 0000 11162631 Desbl Judicial-Bacen Jud 91.380.001 31.950,00 C

07/12/2020 0000 13373500 Transf Depósito Judicial 12.008.146.700.401 | 31.950,00 D

07/12/2020 0000 00000345 BB CP Automatico S P 70 8.933.288,85 D 0,00 C

09/12/2020 0000 14175976 TED-Crédito em Conta 34.980.259 910,65 C
021 0085 8761124000100 ESTADO DA PARA

09/12/2020 0000 13138 132 Emissão Ordem Bancária 3.743 2.883.646,00 D

09/12/2020 0000 13138 132 Emissão Ordem Bancária 3.744 165.897,63 D

09/12/2020 0000 00000855 BB CP Automatico S P 70 3.048.632,98 0,00 C

10/12/2020 0000 14173900 Resgate Depósito Judicial 50.297.904 3.395,37 C

10/12/2020 0000 14138972 ORDEM BANC CANCELADA 542.850.000 792,00

10/12/2020 0000 14056632 Ordem Bancária 5.275.006.000.001 800.000,00 C
005304930001-71 DIRETORIA EXECUTIVA DO

10/12/2020 0000 14056632 Ordem Bancária 5.279.335.000.001 1.920.000,00 C
005304930001-71 DIRETORIA EXECUTIVA DO

10/12/2020 0000 12334920 Blog Judicial-Bacen Jud 12.018.389.440.301 3.027,60 *

10/12/2020 0000 13138 132 Emissão Ordem Bancária 3.745 1.490.131,24D

10/12/2020 0000 11334 284 Blog Judicial-Bacen Jud 12.018.389.440.301 3.027,60 D
10/12/2020
11/12/2020
11/12/2020
11/12/2020
11/12/2020
14/12/2020
14/12/2020
14/12/2020
15/12/2020

15/12/2020

15/12/2020
15/12/2020
15/12/2020
15/12/2020
15/12/2020
15/12/2020
15/12/2020
16/12/2020
16/12/2020

16/12/2020
16/12/2020
16/12/2020
16/12/2020
17/12/2020
17/12/2020
17/12/2020

17/12/2020
17/12/2020
17/12/2020
17/12/2020
18/12/2020
18/12/2020
18/12/2020
18/12/2020

18/12/2020
18/12/2020
18/12/2020
18/12/2020
18/12/2020
18/12/2020
21/12/2020
21/12/2020
21/12/2020
21/12/2020
21/12/2020
22/12/2020

22/12/2020

22/12/2020

22/12/2020

22/12/2020
22/12/2020
23/12/2020
23/12/2020
23/12/2020
23/12/2020
23/12/2020

0000
0000
0000
0000
0000
0000
0000
0000
0000

0000

0000
0000
0000
0000
0000
0000
0000
0000
0000

0000
0000
0000
0000
0000
0000
0000

0000
0000
0000
0000
0000
0000
0000
0000

0000
0000
0000
0000
0000
0000
0000
0000
0000
0000
0000
0000

0000

0000

0000

0000
0000
0000
0000
0000
0000
0000

00000 345 BB CP Automatico S P
14173 900 Resgate Depósito Judicial
14173 900 Resgate Depósito Judicial
13138 132 Emissão Ordem Bancária
00000 855 BB CP Automatico S P
14173 900 Resgate Depósito Judicial
13138 132 Emissão Ordem Bancária
00000 855 BB CP Automatico S P
14056 632 Ordem Bancária

70 1.231.028,53 D 0,00 C
50.300.347 3.129,28 C
50.328.168 346,15C

3.747 1.827.225,84 D

70 1.823.750,41 C 0,00 C

50.356.809 1.379,37 C
3.748 1.970.318,85 D
70 1.968.939,48 C 0,00 C

5.364.196.000.001 | 152.367,38 C

005304930001-71 DIRETORIA EXECUTIVA DO

14056 632 Ordem Bancária

5.364.388.000.001 99.266,14 C

005304930001-71 DIRETORIA EXECUTIVA DO

12334 920 Blog Judicial-Bacen Jud
12334 920 Blog Judicial-Bacen Jud
13138 132 Emissão Ordem Bancária
13138 132 Emissão Ordem Bancária
11334 284 Blog Judicial-Bacen Jud
11334 284 Blog Judicial-Bacen Jud
00000 855 BB CP Automatico S P
14138972 ORDEM BANC CANCELADA
14056 632 Ordem Bancária

12.018.853.360.201 10.300,00 *
12.018.945.000.401 1.458,72 *

3.749 3.082.779,95 D
3.750 165.897,63D

12.018.853.360.201 10.300,00 D
12.018.945.000.401 1.458,72D

70 3.008.802,78 C 0,00 C
562.340.000 16.496,76 C

5.376.432.000.001 | 915.276,25 C

005304930001-71 DIRETORIA EXECUTIVA DO

12334 920 Blog Judicial-Bacen Jud
13138 132 Emissão Ordem Bancária
11334 284 Blog Judicial-Bacen Jud
00000 855 BB CP Automatico S P
14173 900 Resgate Depósito Judicial
14138972 ORDEM BANC CANCELADA
14056 632 Ordem Bancária

12.019.026.110.101 17.900,00 *

3.751 3.942.427,18D

12.019.026.110.101 17.900,00 D

70 3.028.554,17 00,00 C
50.413.551 31,03C
565.120.000 72.861,19C

5.408.925.000.001 31.735,00 C

005304930001-71 DIRETORIA EXECUTIVA DO

12334 920 Blog Judicial-Bacen Jud
13138 132 Emissão Ordem Bancária
11334 284 Blog Judicial-Bacen Jud
00000 855 BB CP Automatico S P
14173 900 Resgate Depósito Judicial
14173 900 Resgate Depósito Judicial
14138972 ORDEM BANC CANCELADA
14056 632 Ordem Bancária

12.019.228.281.201 247,91 *

3.752 1.950.377,21 D

12.019.228.281.201 247,91 D

70 1.845.997,90 C 0,00 C
50.477.254 | 44.968,50 C
50.479.128 8.296,11C

573.500.000 148,50 C

5.453.137.000.001 25.036,81 C

005304930001-71 DIRETORIA EXECUTIVA DO

13138 132 Emissão Ordem Bancária
11162631 Desbl Judicial-Bacen Jud
11162631 Desbl Judicial-Bacen Jud
13373 500 Transf Depósito Judicial
13373 500 Transf Depósito Judicial
00000 855 BB CP Automatico S P
13138 132 Emissão Ordem Bancária
13138 132 Emissão Ordem Bancária
11162631 Desbl Judicial-Bacen Jud

3.753 5.606.030,40 D
95.380.001 10.300,00 C
95.450.001 17.900,00 C

12.018.853.360.201 10.300,00 D
12.019.026.110.103 17.900,00 D

70 5.527.580,48 C 0,00 C
3.754 4.619.039,64 D
3.755 251.633,52D
95.470.001 247,91 C

13373 500 Transf Depósito Judicial

00000 855 BB CP Automatico S P 70

14056 632 Ordem Bancária
005304930001-71 DIRETORIA EXECUTIVA DO

14056 632 Ordem Bancária
005304930001-71 DIRETORIA EXECUTIVA DO

14056 632 Ordem Bancária 5.534.802.000.001
005304930001-71 DIRETORIA EXECUTIVA DO

12.019.228.281.212 247,91 D
4.870.673,16 C 0,00 C

5.532.811.000.001 | 747.810,00 C

5.534.733.000.001 25.036,81 C

1.440.000,00 C

14138 632 Ordem Bancária 202.012.220.021.617 23.342,70 C
073129120001-48 PB-SEC DE ESTADO DAS F
13138 132 Emissão Ordem Bancária 3.756 3.076.402,94 D
00000 855 BB CP Automatico S P 70  840.213,43C0,00 C
14138972 ORDEM BANC CANCELADA 599.360.000 6.061,44 C
14138972 ORDEM BANC CANCELADA 601.400.000 16.200,00 C
14138972 ORDEM BANC CANCELADA 602.090.000 1.296,00 C
14138972 ORDEM BANC CANCELADA 602.980.000 2.160,00 C
14138972 ORDEM BANC CANCELADA 603.040.000 540,00 C
23/12/2020 0000 13138 132 Emissão Ordem Bancária 3.757
23/12/2020 0000 13138 132 Emissão Ordem Bancária 3.758
23/12/2020 0000 00000 855 BB CP Automatico S P 70
24/12/2020 0000 14138972 ORDEM BANC CANCELADA 604.950.000
24/12/2020 0000 14138972 ORDEM BANC CANCELADA 606.400.000
24/12/2020 0000 14138972 ORDEM BANC CANCELADA 609.990.000
24/12/2020 0000 14138972 ORDEM BANC CANCELADA 611.240.000
24/12/2020 0000 14138972 ORDEM BANC CANCELADA 611.680.000
24/12/2020 0000 14138972 ORDEM BANC CANCELADA 611.950.000
24/12/2020 0000 14056 632 Ordem Bancária 5.617.394.000.001
005304930001-71 DIRETORIA EXECUTIVA DO
24/12/2020 0000 00000 345 BB CP Automatico S P 70
28/12/2020 0000 14056 632 Ordem Bancária 5.664.162.000.001
005304930001-71 DIRETORIA EXECUTIVA DO
28/12/2020 0000 13138 132 Emissão Ordem Bancária 3.759
28/12/2020 0000 00000 855 BB CP Automatico S P 70
29/12/2020 0000 14173900 Resgate Depósito Judicial 50.543.612
29/12/2020 0000 14056 632 Ordem Bancária 5.687.385.000.001
005304930001-71 DIRETORIA EXECUTIVA DO
29/12/2020 0000 13138 132 Emissão Ordem Bancária 3.761
29/12/2020 0000 00000 855 BB CP Automatico S P 70
30/12/2020 0000 | 14056 632 Ordem Bancária 5.746.826.000.001
005304930001-71 DIRETORIA EXECUTIVA DO
30/12/2020 0000 13138 132 Emissão Ordem Bancária 3.762
30/12/2020 0000 11162631 Desbl Judicial-Bacen Jud 95.050.001
30/12/2020 0000 13373500 Transf Depósito Judicial 12.018.389.440.302
30/12/2020 0000 00000 345 BB CP Automatico S P 70
31/12/2020 0000 00000999SALDO

3.705.960,83 D
23.342,70 D
3.703.046,09 C 0,00 C
440,00 C
23.164,87 C
864,00 C
330,00 C
990,00 C
5.040,00 C
13.517,00 C

44.345,87 D 0,00 C
105.000,00 C

2.569.694,10 D
2.464.694,10 C 0,00 C

73.806,19C

463.563,84 C

1.719.196,39 D
1.181.826,36 C 0,00 C
3.760.565,97 C

996.773,68 D
3.000,00 C
3.000,00 D

2.763.792,29 D 0,00 C
0,00 C

 

 

Transação efetuada com sucesso por: JB599661 JOSE F CHAGAS.

Serviço de Atendimento ao Consumidor - SAC 0800 729 0722

Ouvidoria BB 0800 729 5678
Para deficientes auditivos 0800 729 0088
Er

ns

ENTRADAS DE MATERIAIS DE JANEIRO A DEZEMBRO

Valores em R$ 1,00

20/05/2021 20:49:52

 

SECRETARIA DE ESTADO DA SAUDE

SES - LABORATORIO CENTRAL

Entrada Nº
2020000028
DOAÇÃO -

ENTRADA - ORG
EXTERNO

DT. Entrada
03/01/2020

Fornecedor / Desc. Empenho
00.394.544/0008-51 MINISTERIO DA SAUDE

Data NF
16/12/2019

Nº Nota Fiscal
001912104

Valor Entrada
7.700,00

Empenho Fonte

 

2020000029

DOAÇÃO -
ENTRADA - ORG
EXTERNO

03/01/2020

00.394.544/0008-51 MINISTERIO DA SAUDE

16/12/2019

001912103

20.712,18

 

2020000031

DOAÇÃO -
ENTRADA - ORG
EXTERNO

03/01/2020

56.998.701/0032-12 ABBOTT LABORATORIOS DO BRASIL LTDA

13/12/2019

000420678

3.284,12

 

2020000071

DOAÇÃO -
ENTRADA - ORG
EXTERNO

07/01/2020

00.394.544/0008-51 MINISTERIO DA SAUDE

16/12/2019

000298293

191.566,74

 

2020000239

DOAÇÃO -
ENTRADA - ORG
EXTERNO

17/01/2020

21551379002141 BECTON DICKINSON INDUSTRIAS CIRURGICAS
LTDA

23/12/2019

000096275

280,84

 

2020000315

DOAÇÃO -
ENTRADA - ORG
EXTERNO

22/01/2020

00.394.544/0008-51 MINISTERIO DA SAUDE

16/01/2020

000300629

222.865,82

 

2020000319

DOAÇÃO -
ENTRADA - ORG
EXTERNO

22/01/2020

00.394.544/0008-51 MINISTERIO DA SAUDE

16/01/2020

003006291

4.363,76

 

Página: 1
ENTRADAS DE MATERIAIS DE JANEIRO A DEZEMBRO

Valores em R$ 1,00

20/05/2021 20:49:52

 

2020000322

DOAÇÃO -
ENTRADA - ORG
EXTERNO

22/01/2020

56.998.701/0032-12 ABBOTT LABORATORIOS DO BRASIL LTDA

17/01/2020

000425315

3.470,44

 

2020000338

DOAÇÃO -
ENTRADA - ORG
EXTERNO

23/01/2020

00.394.544/0008-51 MINISTERIO DA SAUDE

21/01/2020

002001127

8.165,64

 

2020000339

DOAÇÃO -
ENTRADA - ORG
EXTERNO

23/01/2020

00.394.544/0008-51 MINISTERIO DA SAUDE

21/01/2020

002001128

328,96

 

2020000487

DOAÇÃO -
ENTRADA - ORG
EXTERNO

31/01/2020

00.394.544/0008-51 MINISTERIO DA SAUDE

29/01/2020

000302891

7.077,14

 

2020002132

DOAÇÃO -
ENTRADA - ORG
EXTERNO

09/03/2020

56.998.701/0032-12 ABBOTT LABORATORIOS DO BRASIL LTDA

28/02/2020

000432295

1.862,46

 

2020002136

DOAÇÃO -
ENTRADA - ORG
EXTERNO

09/03/2020

00.394.544/0008-51 MINISTERIO DA SAUDE

17/02/2020

000200293

2.364,48

 

2020002137

DOAÇÃO -
ENTRADA - ORG
EXTERNO

09/03/2020

00.394.544/0008-51 MINISTERIO DA SAUDE

28/02/2020

000304993

7.318,78

 

2020002139

DOAÇÃO -
ENTRADA - ORG
EXTERNO

09/03/2020

00.394.544/0008-51 MINISTERIO DA SAUDE

17/02/2020

000200292

7.218,85

 

Página: 2
ENTRADAS DE MATERIAIS DE JANEIRO A DEZEMBRO

Valores em R$ 1,00

20/05/2021 20:49:52

 

2020002140

DOAÇÃO -
ENTRADA - ORG
EXTERNO

09/03/2020

21551379002141 BECTON DICKINSON INDUSTRIAS CIRURGICAS 07/02/2020
LTDA

000533354

1.398,04

 

2020002611

DOAÇÃO -
ENTRADA - ORG
EXTERNO

19/03/2020

00.394.544/0008-51 MINISTERIO DA SAUDE 13/03/2020

000200329

13.667,30

 

2020002613

DOAÇÃO -
ENTRADA - ORG
EXTERNO

19/03/2020

00.394.544/0008-51 MINISTERIO DA SAUDE 16/03/2020

000200330

5.150,00

 

2020002805

DOAÇÃO -
ENTRADA - ORG
EXTERNO

23/03/2020

0102030405 GERENCIA OPERACIONAL DST/AIDS HEPATITES VIRAIS 30/05/2019

000300519

1.855,00

 

2020003070

DOAÇÃO -
ENTRADA - ORG
EXTERNO

25/03/2020

33781055001530 INSTITUTO DE TECNOLOGIA EM 18/03/2020
IMUNOBIOLOGICOS - BIO MANGUINHOS

000031944

9.484,80

 

Página: 3
Er

| É ENTRADAS DE MATERIAIS DE JANEIRO A DEZEMBRO

Valores em R$ 1,00

20/05/2021 20:49:52

 

2020003072

DOAÇÃO -
ENTRADA - ORG
EXTERNO

25/03/2020

33781055001530 INSTITUTO DE TECNOLOGIA EM
IMUNOBIOLOGICOS - BIO MANGUINHOS

20/03/2020

000031998

9.484,80

 

2020003075

DOAÇÃO -
ENTRADA - ORG
EXTERNO

25/03/2020

33781055001530 INSTITUTO DE TECNOLOGIA EM
IMUNOBIOLOGICOS - BIO MANGUINHOS

21/03/2020

000032023

9.484,80

 

2020003196

DOAÇÃO -
ENTRADA - ORG
EXTERNO

26/03/2020

00.394.544/0008-51 MINISTERIO DA SAUDE

19/03/2020

000308507

2.600,31

 

2020003896

DOAÇÃO -
ENTRADA - ORG
EXTERNO

02/04/2020

00394544000851 MINISTÉRIO DA SAÚDE (MS)

26/03/2020

000309732

18.969,60

 

2020003897

DOAÇÃO -
ENTRADA - ORG
EXTERNO

02/04/2020

00394544000851 MINISTÉRIO DA SAÚDE (MS)

27/03/2020

000309951

16.598,40

 

2020003898

DOAÇÃO -
ENTRADA - ORG
EXTERNO

02/04/2020

00394544000851 MINISTÉRIO DA SAÚDE (MS)

30/03/2020

000310208

9.484,80

 

2020003900

DOAÇÃO -
ENTRADA - ORG
EXTERNO

02/04/2020

00394544000851 MINISTÉRIO DA SAÚDE (MS)

30/03/2020

000309129

28.650,00

 

2020004009

DOAÇÃO -
ENTRADA - ORG
EXTERNO

03/04/2020

00394544000851 MINISTÉRIO DA SAÚDE (MS)

31/03/2020

001062020

9.484,80

 

Página: 4
ENTRADAS DE MATERIAIS DE JANEIRO A DEZEMBRO

Valores em R$ 1,00

20/05/2021 20:49:52

 

2020004434

DOAÇÃO -
ENTRADA - ORG
EXTERNO

13/04/2020

33781055001530 INSTITUTO DE TECNOLOGIA EM

IMUNOBIOLOGICOS - BIO MANGUINHOS

03/04/2020

000000883

99.582,00

 

2020004438

DOAÇÃO -
ENTRADA - ORG
EXTERNO

13/04/2020

56.998.701/0032-12 ABBOTT LABORATORIOS DO BRASIL LTDA

27/03/2020

000438046

2.525,14

 

2020004440

DOAÇÃO -
ENTRADA - ORG
EXTERNO

13/04/2020

00394544000851

MINISTÉRIO DA SAÚDE (MS)

31/03/2020

000310321

12.281,95

 

2020004507

DOAÇÃO -
ENTRADA - ORG
EXTERNO

14/04/2020

00394544000851

MINISTÉRIO DA SAÚDE (MS)

31/03/2020

000310320

35.777,53

 

2020004649

DOAÇÃO -
ENTRADA - ORG
EXTERNO

15/04/2020

00394544000851

MINISTÉRIO DA SAÚDE (MS)

07/04/2020

000310832

360,00

 

2020004653

DOAÇÃO -
ENTRADA - ORG
EXTERNO

15/04/2020

00394544000851

MINISTÉRIO DA SAÚDE (MS)

09/04/2020

000311236

4.500,00

 

2020004656

DOAÇÃO -
ENTRADA - ORG
EXTERNO

15/04/2020

00394544000851

MINISTÉRIO DA SAÚDE (MS)

09/04/2020

000311207

25.764,00

 

2020004813

DOAÇÃO -
ENTRADA - ORG
EXTERNO

16/04/2020

00394544000851

MINISTÉRIO DA SAÚDE (MS)

13/04/2020

000311699

29.880,00

 

Página: 5
Er

| É ENTRADAS DE MATERIAIS DE JANEIRO A DEZEMBRO

Valores em R$ 1,00

20/05/2021 20:49:52

 

2020005211

DOAÇÃO -
ENTRADA - ORG
EXTERNO

2020005215
DOAÇÃO -

ENTRADA - ORG
EXTERNO

20/04/2020

20/04/2020

33781055001530 INSTITUTO DE TECNOLOGIA EM
IMUNOBIOLOGICOS - BIO MANGUINHOS

33781055001530 INSTITUTO DE TECNOLOGIA EM
IMUNOBIOLOGICOS - BIO MANGUINHOS

17/04/2020

15/04/2020

000612020

015042020

178.875,00

296.375,00

 

2020005939

DOAÇÃO -
ENTRADA - ORG
EXTERNO

27/04/2020

00.394.544/0008-51 MINISTERIO DA SAUDE

21/04/2020

000312802

250,00

 

2020006336

DOAÇÃO -
ENTRADA - ORG
EXTERNO

29/04/2020

00.394.544/0008-51 MINISTERIO DA SAUDE

17/04/2020

000200458

550,00

 

Página: 6
ENTRADAS DE MATERIAIS DE JANEIRO A DEZEMBRO

Valores em R$ 1,00

20/05/2021 20:49:52

 

2020006407

DOAÇÃO -
ENTRADA - ORG
EXTERNO

30/04/2020

00.394.544/0008-51

MINISTERIO DA SAUDE

27/04/2020

000200457

1.588,86

 

2020007991

DOAÇÃO -
ENTRADA - ORG
EXTERNO

18/05/2020

00.394.544/0008-51

MINISTERIO DA SAUDE

08/05/2020

000314604

792.377,15

 

2020007992

DOAÇÃO -
ENTRADA - ORG
EXTERNO

18/05/2020

00.394.544/0008-51

MINISTERIO DA SAUDE

30/04/2020

000313873

876.033,23

 

2020008679

DOAÇÃO -
ENTRADA - ORG
EXTERNO

22/05/2020

00.394.544/0008-51

MINISTERIO DA SAUDE

14/05/2020

002005118

6.699,06

 

2020008680

DOAÇÃO -
ENTRADA - ORG
EXTERNO

22/05/2020

00.394.544/0008-51

MINISTERIO DA SAUDE

13/05/2020

000315366

2.300.657,95

 

2020008699

DOAÇÃO -
ENTRADA - ORG
EXTERNO

22/05/2020

00.394.544/0008-51

MINISTERIO DA SAUDE

13/05/2020

000315397

2.882,12

 

2020008970

DOAÇÃO -
ENTRADA - ORG
EXTERNO

26/05/2020

00.394.544/0008-51

MINISTERIO DA SAUDE

13/05/2020

002005119

15.470,00

 

202! 31

DOAÇÃO -
ENTRADA - ORG
EXTERNO

04/06/2020

00.394.544/0008-51

MINISTERIO DA SAUDE

01/06/2020

000317056

5.556,91

 

Página: 7
f ENTRADAS DE MATERIAIS DE JANEIRO A DEZEMBRO

Valores em R$ 1,00

20/05/2021 20:49:52

 

2020010793

DOAÇÃO -
ENTRADA - ORG
EXTERNO

15/06/2020

56.998.701/0032-12 ABBOTT LABORATORIOS DO BRASIL LTDA

03/06/2020

000445926

160.000,00

 

2020011141

DOAÇÃO -
ENTRADA - ORG
EXTERNO

17/06/2020

33.781.055/0049-80 FUNDAÇÃO OSWALDO CRUZ/INSTITUTO DE
TECNOLOGIA EM FARMACOS

08/06/2020

000160580

2.510,00

 

2020011150

DOAÇÃO -
ENTRADA - ORG
EXTERNO

17/06/2020

56.998.701/0032-12 ABBOTT LABORATORIOS DO BRASIL LTDA

18/05/2020

000443855

2.626,50

 

2020011578

DOAÇÃO -
ENTRADA - ORG
EXTERNO

19/06/2020

00.394.544/0008-51 MINISTERIO DA SAUDE

15/06/2020

000200626

342,62

 

2020012170

DOAÇÃO -
ENTRADA - ORG
EXTERNO

29/06/2020

56.998.701/0032-12 ABBOTT LABORATORIOS DO BRASIL LTDA

09/06/2020

000446796

11.524,74

 

2020012179

DOAÇÃO -
ENTRADA - ORG
EXTERNO

29/06/2020

00.394.544/0008-51 MINISTERIO DA SAUDE

12/06/2020

000001185

7.470,00

 

2020012716

DOAÇÃO -
ENTRADA - ORG
EXTERNO

02/07/2020

00.394.544/0008-51 MINISTERIO DA SAUDE

18/06/2020

000319081

14.490,00

 

2020012985

DOAÇÃO -
ENTRADA - ORG
EXTERNO

07/07/2020

00.394.544/0008-51 MINISTERIO DA SAUDE

23/06/2020

000001269

10.094,70

 

Página: 8
ENTRADAS DE MATERIAIS DE JANEIRO A DEZEMBRO

Valores em R$ 1,00

20/05/2021 20:49:52

 

2020012995 07/07/2020 08.778.268/0001-60 SECRETARIA DE ESTADO DE SAUDE - PB

DOAÇÃO -
ENTRADA - ORG
EXTERNO

2020013045 07/07/2020 08.778.268/0001-60 SECRETARIA DE ESTADO DE SAUDE - PB
DOAÇÃO -

ENTRADA - ORG
EXTERNO

2020013049 07/07/2020 56.998.701/0032-12 ABBOTT LABORATÓRIOS DO BRASIL LTDA
DOAÇÃO -

ENTRADA - ORG
EXTERNO

2020013407 09/07/2020 00.394.544/0008-51 MINISTERIO DA SAUDE
DOAÇÃO -

ENTRADA - ORG
EXTERNO

02/07/2020

07/07/2020

26/06/2020

30/06/2020

010794919

000000000

000449619

000320664

23.750,00

350,00

109,02

681,68

Página: 9
ENTRADAS DE MATERIAIS DE JANEIRO A DEZEMBRO

Valores em R$ 1,00

20/05/2021 20:49:52

 

2020013410

DOAÇÃO -
ENTRADA - ORG
EXTERNO

09/07/2020

00.394.544/0008-51

MINISTERIO DA SAUDE

30/06/2020

000320663

681,68

 

2020013483

DOAÇÃO -
ENTRADA - ORG
EXTERNO

10/07/2020

00.394.544/0008-51

MINISTERIO DA SAUDE

02/07/2020

000320741

4.942,98

 

2020013646

DOAÇÃO -
ENTRADA - ORG
EXTERNO

13/07/2020

00.394.544/0008-51

MINISTERIO DA SAUDE

06/07/2020

000320975

13.353,60

 

2020014190

DOAÇÃO -
ENTRADA - ORG
EXTERNO

17/07/2020

00.394.544/0008-51

MINISTERIO DA SAUDE

09/07/2020

002007128

2.349,70

 

2020014194

DOAÇÃO -
ENTRADA - ORG
EXTERNO

17/07/2020

00.394.544/0008-51

MINISTERIO DA SAUDE

14/07/2020

000322218

15.612,82

 

2020014675

DOAÇÃO -
ENTRADA - ORG
EXTERNO

21/07/2020

00.394.544/0008-51

MINISTERIO DA SAUDE

08/07/2020

002007129

11.070,00

 

2020014682

DOAÇÃO -
ENTRADA - ORG
EXTERNO

21/07/2020

00.394.544/0008-51

MINISTERIO DA SAUDE

02/07/2020

000320740

455,97

 

2020015788

DOAÇÃO -
ENTRADA - ORG
EXTERNO

29/07/2020

00.394.544/0008-51

MINISTERIO DA SAUDE

19/07/2020

000000000

25.237,80

 

Página: 10
ENTRADAS DE MATERIAIS DE JANEIRO A DEZEMBRO

Valores em R$ 1,00

20/05/2021 20:49:52

 

2020015826

DOAÇÃO -
ENTRADA - ORG
EXTERNO

29/07/2020

00.394.544/0008-51

MINISTERIO DA SAUDE

16/07/2020

000000001

14.954,40

 

2020016060

DOAÇÃO -
ENTRADA - ORG
EXTERNO

30/07/2020

00.394.544/0008-51

MINISTERIO DA SAUDE

27/07/2020

000000002

5.040,00

 

2020016072

DOAÇÃO -
ENTRADA - ORG
EXTERNO

30/07/2020

00.394.544/0008-51

MINISTERIO DA SAUDE

27/07/2020

000000003

12.456,00

 

2020017788

DOAÇÃO -
ENTRADA - ORG
EXTERNO

17/08/2020

00.394.544/0008-51

MINISTERIO DA SAUDE

04/08/2020

000324056

15.058,54

 

2020017812

DOAÇÃO -
ENTRADA - ORG
EXTERNO

17/08/2020

00.394.544/0008-51

MINISTERIO DA SAUDE

04/08/2020

000324057

29.677,10

 

2020018771

DOAÇÃO -
ENTRADA - ORG
EXTERNO

24/08/2020

00.394.544/0008-51

MINISTERIO DA SAUDE

10/08/2020

000200840

3.850,00

 

2020020022

DOAÇÃO -
ENTRADA - ORG
EXTERNO

31/08/2020

00.394.544/0008-51

MINISTERIO DA SAUDE

28/08/2020

000200839

1.568,66

 

2020021729

DOAÇÃO -
ENTRADA - ORG
EXTERNO

17/09/2020

00.394.544/0008-51

MINISTERIO DA SAUDE

02/09/2020

000327770

31.526,98

 

Página: 11
ENTRADAS DE MATERIAIS DE JANEIRO A DEZEMBRO

Valores em R$ 1,00

20/05/2021 20:49:52

 

2020021730

DOAÇÃO -
ENTRADA - ORG
EXTERNO

2020021732
DOAÇÃO -

ENTRADA - ORG
EXTERNO

2020022104
DOAÇÃO -

ENTRADA - ORG
EXTERNO

2020022645
DOAÇÃO -

ENTRADA - ORG
EXTERNO

17/09/2020

17/09/2020

22/09/2020

25/09/2020

00.394.544/0008-51 MINISTERIO DA SAUDE

00.394.544/0008-51 MINISTERIO DA SAUDE

00.394.544/0008-51 MINISTERIO DA SAUDE

00.394.544/0008-51 MINISTERIO DA SAUDE

26/08/2020

02/09/2020

11/09/2020

11/09/2020

000327201

000327769

000034053

000200917

428.926,73

17.125,97

2.298,00

8.046,52

Página: 12
ENTRADAS DE MATERIAIS DE JANEIRO A DEZEMBRO

Valores em R$ 1,00

20/05/2021 20:49:52

 

2020022646

DOAÇÃO -
ENTRADA - ORG
EXTERNO

25/09/2020

00.394.544/0008-51

MINISTERIO DA SAUDE

11/09/2020

000200918

4.950,00

 

2020023443

DOAÇÃO -
ENTRADA - ORG
EXTERNO

05/10/2020

00.394.544/0008-51

MINISTERIO DA SAUDE

30/09/2020

000034357

249.600,00

 

2020023815

DOAÇÃO -
ENTRADA - ORG
EXTERNO

08/10/2020

00.394.544/0008-51

MINISTERIO DA SAUDE

29/09/2020

000330569

48.254,26

 

2020023866

DOAÇÃO -
ENTRADA - ORG
EXTERNO

08/10/2020

00.394.544/0008-51

MINISTERIO DA SAUDE

25/09/2020

000330406

235.704,89

 

2020024456

DOAÇÃO -
ENTRADA - ORG
EXTERNO

14/10/2020

00.394.544/0008-51

MINISTERIO DA SAUDE

08/10/2020

000201027

5.500,00

 

2020024561

DOAÇÃO -
ENTRADA - ORG
EXTERNO

15/10/2020

00.394.544/0008-51

MINISTERIO DA SAUDE

06/10/2020

000330789

15.646,65

 

2020024576

DOAÇÃO -
ENTRADA - ORG
EXTERNO

15/10/2020

00.394.544/0008-51

MINISTERIO DA SAUDE

07/10/2020

000331206

17.553,26

 

2020024599

DOAÇÃO -
ENTRADA - ORG
EXTERNO

15/10/2020

00.394.544/0008-51

MINISTERIO DA SAUDE

08/10/2020

000201026

11.077,89

 

Página: 13
Er

| É ENTRADAS DE MATERIAIS DE JANEIRO A DEZEMBRO

Valores em R$ 1,00

20/05/2021 20:49:52

 

2020024604

DOAÇÃO -
ENTRADA - ORG
EXTERNO

15/10/2020

00.394.544/0008-51

MINISTERIO DA SAUDE

06/10/2020

000330790

20.226,25

 

2020025435

DOAÇÃO -
ENTRADA - ORG
EXTERNO

22/10/2020

08778268003771 HOSPITAL DE EMERGENCIA E TRAUMA SENADOR

HUMBERTO LUCENA

20/10/2020

000000708

335,00

 

2020026405

DOAÇÃO -
ENTRADA - ORG
EXTERNO

03/11/2020

00.394.544/0008-51

MINISTERIO DA SAUDE

02/10/2020

000468152

1.989,58

 

2020026406

DOAÇÃO -
ENTRADA - ORG
EXTERNO

03/11/2020

00.394.544/0008-51

MINISTERIO DA SAUDE

05/10/2020

000468195

99,34

 

2020026407

DOAÇÃO -
ENTRADA - ORG
EXTERNO

03/11/2020

00.394.544/0008-51

MINISTERIO DA SAUDE

08/09/2020

000462903

242,92

 

2020027211

DOAÇÃO -
ENTRADA - ORG
EXTERNO

11/11/2020

00.394.544/0008-51

MINISTERIO DA SAUDE

24/10/2020

000333119

39.346,60

 

2020027234

DOAÇÃO -
ENTRADA - ORG
EXTERNO

11/11/2020

00.394.544/0008-51

MINISTERIO DA SAUDE

24/10/2020

000333123

69.927,50

 

2020028211

DOAÇÃO -
ENTRADA - ORG
EXTERNO

19/11/2020

00.394.544/0008-51

MINISTERIO DA SAUDE

13/11/2020

000201120

9.394,19

 

Página: 14
Er

| É ENTRADAS DE MATERIAIS DE JANEIRO A DEZEMBRO

Valores em R$ 1,00

20/05/2021 20:49:52

 

2020029074

DOAÇÃO -
ENTRADA - ORG
EXTERNO

2020029421

DOAÇÃO -
ENTRADA - ORG
EXTERNO

2020031954

DOAÇÃO -
ENTRADA - ORG
EXTERNO

26/11/2020

30/11/2020

12/12/2020

00.394.544/0008-51 MINISTERIO DA SAUDE

08778268003771 HOSPITAL DE EMERGENCIA E TRAUMA SENADOR
HUMBERTO LUCENA

33.781.055/0049-80 FUNDAÇÃO OSWALDO CRUZ/INSTITUTO DE
TECNOLOGIA EM FARMACOS

24/10/2020

30/11/2020

27/11/2020

000333333

000000002

000000146

319.140,00

335,00

29.950,00

 

2020032661

DOAÇÃO -
ENTRADA - ORG
EXTERNO

15/12/2020

00.394.544/0008-51 MINISTERIO DA SAUDE

05/12/2020

000205731

63.806,40

 

7.334.138,80

Página: 15
Er

| É ENTRADAS DE MATERIAIS DE JANEIRO A DEZEMBRO

Valores em R$ 1,00

20/05/2021 20:49:52

 

SES - HOSPITAL ESTADUAL DE SOLANEA - FARMACIA

 

 

 

Entrada Nº DT. Entrada Fornecedor / Desc. Empenho Data NF Nº Nota Fiscal Empenho Fonte Valor Entrada

2020009527 01/06/2020 09283185000163 FÓRUM MUNICIPAL ADV. ALFREDO PESSOA DE 22/05/2020 000010430 11.000,00
LIMA

DOAÇÃO -

ENTRADA - ORG

EXTERNO

2020009529 01/06/2020 09283185000163 FÓRUM MUNICIPAL ADV. ALFREDO PESSOA DE 25/05/2020 000008963 9.000,20
LIMA

DOAÇÃO -

ENTRADA - ORG

EXTERNO

2020009661 02/06/2020 09283185000163 FÓRUM MUNICIPAL ADV. ALFREDO PESSOA DE 25/05/2020 900008963 700,20
LIMA

DOAÇÃO -

ENTRADA - ORG

EXTERNO

20.700,40

Página: 16
Er

ns

ENTRADAS DE MATERIAIS DE JANEIRO A DEZEMBRO

Valores em R$ 1,00

20/05/2021 20:49:52

 

SES - HEMOCENTRO COORDENADOR DE JOAO PESSOA - DEPOSITO CENTRAL

Entrada Nº
2020000081

DOAÇÃO -
ENTRADA - ORG
EXTERNO

DT. Entrada
07/01/2020

Fornecedor / Desc. Empenho
00.394.544/0008-51 MINISTERIO DA SAUDE

Data NF
01/01/0001

Nº Nota Fiscal
000298804

Valor Entrada
1.804.099,55

Empenho Fonte

 

2020000088

DOAÇÃO -
ENTRADA - ORG
EXTERNO

07/01/2020

00.394.544/0008-51 MINISTERIO DA SAUDE

16/12/2019

000299187

70.422,00

 

2020000091

DOAÇÃO -
ENTRADA - ORG
EXTERNO

07/01/2020

00.394.544/0008-51 MINISTERIO DA SAUDE

16/12/2019

000299032

373.781,61

 

2020000379

DOAÇÃO -
ENTRADA - ORG
EXTERNO

21/01/2020

07607851000570 EMPRESA BRASILEIRA DE HEMODERIVADOS E
BIOTECNOLOGIA - HEMOBRAS

17/01/2020

000006081

1.194.600,00

 

2020000544

DOAÇÃO -
ENTRADA - ORG
EXTERNO

28/01/2020

00.394.544/0008-51 MINISTERIO DA SAUDE

17/01/2020

000301559

445.276,79

 

2020000548

DOAÇÃO -
ENTRADA - ORG
EXTERNO

23/01/2020

00.394.544/0008-51 MINISTERIO DA SAUDE

17/01/2020

000301275

253.565,04

 

2020000823

DOAÇÃO -
ENTRADA - ORG
EXTERNO

14/02/2020

08.778.268/0001-60 SECRETARIA DE ESTADO DE SAUDE - PB

14/02/2020

009839956

1.829,13

 

2020000971

DOAÇÃO -
ENTRADA - ORG
EXTERNO

18/02/2020

07607851000570 EMPRESA BRASILEIRA DE HEMODERIVADOS E
BIOTECNOLOGIA - HEMOBRAS

14/02/2020

000006184

1.392.523,50

 

Página: 17
f ENTRADAS DE MATERIAIS DE JANEIRO A DEZEMBRO

Valores em R$ 1,00

20/05/2021 20:49:52

 

2020001629

DOAÇÃO -
ENTRADA - ORG
EXTERNO

18/02/2020

00.394.544/0008-51 MINISTERIO DA SAUDE

14/02/2020

000304365

123.922,99

 

2020001725

DOAÇÃO -
ENTRADA - ORG
EXTERNO

28/02/2020

00.394.544/0008-51 MINISTERIO DA SAUDE

20/02/2020

000305562

291.336,26

 

2020001778

DOAÇÃO -
ENTRADA - ORG
EXTERNO

02/03/2020

00.394.544/0008-51 MINISTERIO DA SAUDE

20/02/2020

000305394

120.382,71

 

2020002545

DOAÇÃO -
ENTRADA - ORG
EXTERNO

18/03/2020

07607851000570 EMPRESA BRASILEIRA DE HEMODERIVADOS E
BIOTECNOLOGIA - HEMOBRAS

18/03/2020

000006237

1.181.839,50

 

2020002548

DOAÇÃO -
ENTRADA - ORG
EXTERNO

18/03/2020

00.394.544/0008-51 MINISTERIO DA SAUDE

13/03/2020

000307422

227.430,44

 

2020002821

DOAÇÃO -
ENTRADA - ORG
EXTERNO

19/03/2020

00.394.544/0008-51 MINISTERIO DA SAUDE

16/03/2020

000307816

248.188,05

 

2020003066

DOAÇÃO -
ENTRADA - ORG
EXTERNO

24/03/2020

00.394.544/0008-51 MINISTERIO DA SAUDE

16/03/2020

000307736

758.615,38

 

2020003456

DOAÇÃO -
ENTRADA - ORG
EXTERNO

26/03/2020

00.394.544/0008-51 MINISTERIO DA SAUDE

19/03/2020

000308413

168.118,36

 

Página: 18
ENTRADAS DE MATERIAIS DE JANEIRO A DEZEMBRO

Valores em R$ 1,00

20/05/2021 20:49:52

 

2020004269

DOAÇÃO -
ENTRADA - ORG
EXTERNO

2020005262
DOAÇÃO -

ENTRADA - ORG
EXTERNO

2020005264
DOAÇÃO -

ENTRADA - ORG
EXTERNO

2020005269
DOAÇÃO -

ENTRADA - ORG
EXTERNO

07/04/2020

20/04/2020

17/04/2020

17/04/2020

07607851000570 EMPRESA BRASILEIRA DE HEMODERIVADOS E
BIOTECNOLOGIA - HEMOBRAS

00.394.544/0008-51 MINISTERIO DA SAUDE

00.394.544/0008-51 MINISTERIO DA SAUDE

00.394.544/0008-51 MINISTERIO DA SAUDE

02/04/2020

09/04/2020

10/04/2020

09/04/2020

000006309

000310996

000311391

000311047

2.096.523,00

895.321,99

886.167,20

351.029,45

Página: 19
Er

| É ENTRADAS DE MATERIAIS DE JANEIRO A DEZEMBRO

Valores em R$ 1,00

20/05/2021 20:49:52

 

2020005424

DOAÇÃO -
ENTRADA - ORG
EXTERNO

2020006498
DOAÇÃO -

ENTRADA - ORG
EXTERNO

2020007605

DOAÇÃO -
ENTRADA - ORG
EXTERNO

2020008315
DOAÇÃO -

ENTRADA - ORG
EXTERNO

2020021323

DOAÇÃO -
ENTRADA - ORG
EXTERNO

20/04/2020

30/04/2020

14/05/2020

20/05/2020

10/09/2020

00.394.544/0008-51 MINISTERIO DA SAUDE

00.394.544/0008-51 MINISTERIO DA SAUDE

07607851000570 EMPRESA BRASILEIRA DE HEMODERIVADOS E
BIOTECNOLOGIA - HEMOBRAS

00.394.544/0008-51 MINISTERIO DA SAUDE

07607851000570 EMPRESA BRASILEIRA DE HEMODERIVADOS E
BIOTECNOLOGIA - HEMOBRAS

10/04/2020

20/04/2020

07/05/2020

11/05/2020

09/09/2020

000311443

000311823

000006385

000314873

000006660

129.848,70

141.513,57

1.653.163,50

3.408,42

1.629.000,00

 

16.441.907,14

Página: 20
Er

| É ENTRADAS DE MATERIAIS DE JANEIRO A DEZEMBRO

Valores em R$ 1,00

20/05/2021 20:49:52

 

SES - CENTRO ESPECIALIZADO DE DISPENSAÇÃO MED. EXCEPCIONAIS

Entrada Nº
2020000005

DOAÇÃO -
ENTRADA - ORG
EXTERNO

DT. Entrada
02/01/2020

Fornecedor / Desc. Empenho

61072393003906 WYETH INDUSTRIA FARMACEUTICA LTDA

Data NF
19/12/2019

Nº Nota Fiscal
000191441

Valor Entrada
9.464,40

Empenho Fonte

 

2020000077

DOAÇÃO -
ENTRADA - ORG
EXTERNO

07/01/2020

00394544000851

MINISTÉRIO DA SAÚDE (MS)

01/01/0001

258.527,07

 

2020000078

DOAÇÃO -
ENTRADA - ORG
EXTERNO

07/01/2020

00394544000851

MINISTÉRIO DA SAÚDE (MS)

01/01/0001

699.132,45

 

2020000080

DOAÇÃO -
ENTRADA - ORG
EXTERNO

07/01/2020

00394544000851

MINISTÉRIO DA SAÚDE (MS)

01/01/0001

120.041,82

 

2020000082

DOAÇÃO -
ENTRADA - ORG
EXTERNO

07/01/2020

00394544000851

MINISTÉRIO DA SAÚDE (MS)

01/01/0001

2.229,57

 

2020000087

DOAÇÃO -
ENTRADA - ORG
EXTERNO

07/01/2020

00394544000851

MINISTÉRIO DA SAÚDE (MS)

01/01/0001

235.533,38

 

2020000106

DOAÇÃO -
ENTRADA - ORG
EXTERNO

07/01/2020

00.394.544/0008-51 MINISTERIO DA SAUDE

01/01/0001

19.409,05

 

2020000107

DOAÇÃO -
ENTRADA - ORG
EXTERNO

07/01/2020

00394544000851

MINISTÉRIO DA SAÚDE (MS)

01/01/0001

887.958,82

 

Página: 21
f ENTRADAS DE MATERIAIS DE JANEIRO A DEZEMBRO

Valores em R$ 1,00

20/05/2021 20:49:52

 

2020000114

DOAÇÃO -
ENTRADA - ORG
EXTERNO

07/01/2020

00.394.544/0008-51 MINISTERIO DA SAUDE

01/01/0001

427.312,60

 

2020000118

DOAÇÃO -
ENTRADA - ORG
EXTERNO

09/01/2020

10266175000107 LABORATÓRIO QUÍMICO FARMACÊUTICO DO
EXERCITO

01/01/0001

19.766,40

 

2020000131

DOAÇÃO -
ENTRADA - ORG
EXTERNO

09/01/2020

10266175000107 LABORATÓRIO QUÍMICO FARMACÉUTICO DO
EXERCITO

01/01/0001

52.200,00

 

2020000142

DOAÇÃO -
ENTRADA - ORG
EXTERNO

09/01/2020

33009945002339 ROCHE - PRODUTOS QUIMICOS E
FARMACEUTICOS S.A

01/01/0001

92.407,44

 

2020000228

DOAÇÃO -
ENTRADA - ORG
EXTERNO

15/01/2020

33781055004980 FUNDAÇÃO OSWALDO CRUZ/INSTITUTO DE
TECNOLOGIA EM FARMACOS

01/01/0001

90.090,00

 

2020000250

DOAÇÃO -
ENTRADA - ORG
EXTERNO

17/01/2020

56.994.502/0098-62 NOVARTIS BIOCIENCIAS S/A

01/01/0001

33.264,00

 

2020000281

DOAÇÃO -
ENTRADA - ORG
EXTERNO

21/01/2020

46070868003699 LABORATÓRIOS PFIZERLTDA

01/01/0001

330.498,00

 

2020000294

DOAÇÃO -
ENTRADA - ORG
EXTERNO

21/01/2020

56.994.502/0098-62 NOVARTIS BIOCIENCIAS S/A

01/01/0001

9.022,70

 

Página: 22
ENTRADAS DE MATERIAIS DE JANEIRO A DEZEMBRO

Valores em R$ 1,00

20/05/2021 20:49:52

 

2020000318 22/01/2020 51780468000268 JANSSEN - CILAG FARMACEUTICA LTDA

DOAÇÃO -
ENTRADA - ORG
EXTERNO

2020000328 22/01/2020 00394544000851 MINISTÉRIO DA SAÚDE (MS)
DOAÇÃO -

ENTRADA - ORG
EXTERNO

2020000342 23/01/2020 00394544000851 MINISTÉRIO DA SAÚDE (MS)
DOAÇÃO -

ENTRADA - ORG
EXTERNO

2020000352 23/01/2020 00394544000851 MINISTÉRIO DA SAÚDE (MS)
DOAÇÃO -

ENTRADA - ORG
EXTERNO

01/01/0001

01/01/0001

01/01/0001

01/01/0001

518.785,80

256.430,65

930,00

217.090,69

 

Página: 23
ENTRADAS DE MATERIAIS DE JANEIRO A DEZEMBRO

Valores em R$ 1,00

20/05/2021 20:49:52

 

2020000353

DOAÇÃO -
ENTRADA - ORG
EXTERNO

23/01/2020

00394544000851

MINISTÉRIO DA SAÚDE (MS)

01/01/0001

23.807,11

 

2020000355

DOAÇÃO -
ENTRADA - ORG
EXTERNO

23/01/2020

00394544000851

MINISTÉRIO DA SAÚDE (MS)

01/01/0001

122.130,03

 

2020000356

DOAÇÃO -
ENTRADA - ORG
EXTERNO

23/01/2020

00394544000851

MINISTÉRIO DA SAÚDE (MS)

01/01/0001

5.876,64

 

2020000382

DOAÇÃO -
ENTRADA - ORG
EXTERNO

27/01/2020

00394544000851

MINISTÉRIO DA SAÚDE (MS)

01/01/0001

183,00

 

2020000429

DOAÇÃO -
ENTRADA - ORG
EXTERNO

28/01/2020

00394544000851

MINISTÉRIO DA SAÚDE (MS)

01/01/0001

27.840,00

 

2020000433

DOAÇÃO -
ENTRADA - ORG
EXTERNO

29/01/2020

10266175000107
EXERCITO

LABORATÓRIO QUÍMICO FARMACÉUTICO DO

01/01/0001

41.238,00

 

2020000478

DOAÇÃO -
ENTRADA - ORG
EXTERNO

31/01/2020

00394544000851

MINISTÉRIO DA SAÚDE (MS)

01/01/0001

10.804,37

 

2020000496

DOAÇÃO -
ENTRADA - ORG
EXTERNO

31/01/2020

00394544000851

MINISTÉRIO DA SAÚDE (MS)

01/01/0001

153.226,09

 

Página: 24
ENTRADAS DE MATERIAIS DE JANEIRO A DEZEMBRO

Valores em R$ 1,00

20/05/2021 20:49:52

 

2020000537

DOAÇÃO -
ENTRADA - ORG
EXTERNO

04/02/2020

00394544000851

MINISTÉRIO DA SAÚDE (MS)

01/01/0001

1.800,00

 

2020000551

DOAÇÃO -
ENTRADA - ORG
EXTERNO

05/02/2020

00394544000851

MINISTÉRIO DA SAÚDE (MS)

01/01/0001

122.087,40

 

2020000560

DOAÇÃO -
ENTRADA - ORG
EXTERNO

05/02/2020

00394544000851

MINISTÉRIO DA SAÚDE (MS)

01/01/0001

39.013,13

 

2020000615

DOAÇÃO -
ENTRADA - ORG
EXTERNO

07/02/2020

00394544000851

MINISTÉRIO DA SAÚDE (MS)

01/01/0001

216.004,33

 

2020000630

DOAÇÃO -
ENTRADA - ORG
EXTERNO

10/02/2020

00394544000851

MINISTÉRIO DA SAÚDE (MS)

01/01/0001

6.355,08

 

2020000663

DOAÇÃO -
ENTRADA - ORG
EXTERNO

11/02/2020

00394544000851

MINISTÉRIO DA SAÚDE (MS)

01/01/0001

18.584,25

 

2020000664

DOAÇÃO -
ENTRADA - ORG
EXTERNO

11/02/2020

00394544000851

MINISTÉRIO DA SAÚDE (MS)

01/01/0001

3.485,94

 

2020000745

DOAÇÃO -
ENTRADA - ORG
EXTERNO

13/02/2020

10266175000107
EXERCITO

LABORATÓRIO QUÍMICO FARMACÉUTICO DO

05/02/2020

000000029

128.934,00

 

Página: 25
ENTRADAS DE MATERIAIS DE JANEIRO A DEZEMBRO

Valores em R$ 1,00

20/05/2021 20:49:52

 

2020001120

DOAÇÃO -
ENTRADA - ORG
EXTERNO

2020001307
DOAÇÃO -

ENTRADA - ORG
EXTERNO

2020001309
DOAÇÃO -

ENTRADA - ORG
EXTERNO

2020001318
DOAÇÃO -

ENTRADA - ORG
EXTERNO

19/02/2020

19/02/2020

19/02/2020

19/02/2020

04.384.829/0001-96 FUNDO ESTADUAL DE SAÚDE / ALCEN -
FES/SES/SE

00394544000851 MINISTÉRIO DA SAÚDE (MS)

00394544000851 MINISTÉRIO DA SAÚDE (MS)

00394544000851 MINISTÉRIO DA SAÚDE (MS)

01/01/0001

01/01/0001

01/01/0001

01/01/0001

61.308,90

1.150,00

10.033,07

32.298,02

Página: 26
ENTRADAS DE MATERIAIS DE JANEIRO A DEZEMBRO

Valores em R$ 1,00

20/05/2021 20:49:52

 

2020001504

DOAÇÃO -
ENTRADA - ORG
EXTERNO

21/02/2020

00394544000851

MINISTÉRIO DA SAÚDE (MS)

01/01/0001

193.064,84

 

2020001505

DOAÇÃO -
ENTRADA - ORG
EXTERNO

21/02/2020

00394544000851

MINISTÉRIO DA SAÚDE (MS)

01/01/0001

88.996,05

 

2020001507

DOAÇÃO -
ENTRADA - ORG
EXTERNO

21/02/2020

00394544000851

MINISTÉRIO DA SAÚDE (MS)

01/01/0001

19.782,01

 

2020001509

DOAÇÃO -
ENTRADA - ORG
EXTERNO

21/02/2020

00394544000851

MINISTÉRIO DA SAÚDE (MS)

01/01/0001

34.599,91

 

2020001525

DOAÇÃO -
ENTRADA - ORG
EXTERNO

21/02/2020

00394544000851

MINISTÉRIO DA SAÚDE (MS)

01/01/0001

4.003,71

 

2020001717

DOAÇÃO -
ENTRADA - ORG
EXTERNO

28/02/2020

00394544000851

MINISTÉRIO DA SAÚDE (MS)

01/01/0001

4.197,75

 

2020001718

DOAÇÃO -
ENTRADA - ORG
EXTERNO

28/02/2020

00394544000851

MINISTÉRIO DA SAÚDE (MS)

01/01/0001

145.020,30

 

2020001723

DOAÇÃO -
ENTRADA - ORG
EXTERNO

28/02/2020

00394544000851

MINISTÉRIO DA SAÚDE (MS)

01/01/0001

17.555,78

 

Página: 27
ENTRADAS DE MATERIAIS DE JANEIRO A DEZEMBRO

Valores em R$ 1,00

20/05/2021 20:49:52

 

2020001756

DOAÇÃO -
ENTRADA - ORG
EXTERNO

28/02/2020

00394544000851

MINISTÉRIO DA SAÚDE (MS)

01/01/0001

101.635,87

 

2020001801

DOAÇÃO -
ENTRADA - ORG
EXTERNO

02/03/2020

00394544000851

MINISTÉRIO DA SAÚDE (MS)

01/01/0001

178.126,80

 

2020001804

DOAÇÃO -
ENTRADA - ORG
EXTERNO

02/03/2020

00394544000851

MINISTÉRIO DA SAÚDE (MS)

01/01/0001

28.593,70

 

2020001805

DOAÇÃO -
ENTRADA - ORG
EXTERNO

02/03/2020

00394544000851

MINISTÉRIO DA SAÚDE (MS)

01/01/0001

4.477,92

 

2020001812

DOAÇÃO -
ENTRADA - ORG
EXTERNO

02/03/2020

46070868003699

LABORATÓRIOS PFIZERLTDA

14/02/2020

000115717

108.885,00

 

2020001912

DOAÇÃO -
ENTRADA - ORG
EXTERNO

03/03/2020

00394544000851

MINISTÉRIO DA SAÚDE (MS)

01/01/0001

30.010,46

 

2020001914

DOAÇÃO -
ENTRADA - ORG
EXTERNO

03/03/2020

00394544000851

MINISTÉRIO DA SAÚDE (MS)

01/01/0001

53.152,04

 

2020001961

DOAÇÃO -
ENTRADA - ORG
EXTERNO

04/03/2020

33781055001530

INSTITUTO DE TECNOLOGIA EM

IMUNOBIOLOGICOS - BIO MANGUINHOS

28/02/2020

000031710

12.160,00

 

Página: 28
ENTRADAS DE MATERIAIS DE JANEIRO A DEZEMBRO

Valores em R$ 1,00

20/05/2021 20:49:52

 

2020002091 06/03/2020 00394544000851 MINISTÉRIO DA SAÚDE (MS)

DOAÇÃO -
ENTRADA - ORG
EXTERNO

2020002165 09/03/2020 00394544000851 MINISTÉRIO DA SAÚDE (MS)
DOAÇÃO -

ENTRADA - ORG
EXTERNO

2020002401 13/03/2020 00394544000851 MINISTÉRIO DA SAÚDE (MS)
DOAÇÃO -

ENTRADA - ORG
EXTERNO

2020002403 13/03/2020 00394544000851 MINISTÉRIO DA SAÚDE (MS)
DOAÇÃO -

ENTRADA - ORG
EXTERNO

01/01/0001

01/01/0001

01/01/0001

01/01/0001

1.985,06

10.723,29

56.744,82

389.981,55

Página: 29
f ENTRADAS DE MATERIAIS DE JANEIRO A DEZEMBRO

Valores em R$ 1,00

20/05/2021 20:49:52

 

2020002504

DOAÇÃO -
ENTRADA - ORG
EXTERNO

17/03/2020

00394544000851 MINISTÉRIO DA SAÚDE (MS)

01/01/0001

3.996,00

 

2020002721

DOAÇÃO -
ENTRADA - ORG
EXTERNO

19/03/2020

33781055001530 INSTITUTO DE TECNOLOGIA EM
IMUNOBIOLOGICOS - BIO MANGUINHOS

18/03/2020

000031926

36.480,00

 

2020002738

DOAÇÃO -
ENTRADA - ORG
EXTERNO

20/03/2020

43640754000119 FUNDAÇÃO PARA O REMEDIO POPULAR - FURP

16/03/2020

000271458

58.910,88

 

2020002740

DOAÇÃO -
ENTRADA - ORG
EXTERNO

20/03/2020

43640754000119 FUNDAÇÃO PARA O REMEDIO POPULAR - FURP

16/03/2020

000271432

36.098,72

 

2020002837

DOAÇÃO -
ENTRADA - ORG
EXTERNO

23/03/2020

00394544000851 MINISTÉRIO DA SAÚDE (MS)

11/03/2020

000306817

1.341.940,41

 

2020003232

DOAÇÃO -
ENTRADA - ORG
EXTERNO

24/03/2020

00394544000851 MINISTÉRIO DA SAÚDE (MS)

01/01/0001

000308440

428.569,78

 

2020003233

DOAÇÃO -
ENTRADA - ORG
EXTERNO

25/03/2020

33781055001530 INSTITUTO DE TECNOLOGIA EM
IMUNOBIOLOGICOS - BIO MANGUINHOS

20/03/2020

000031974

1.465.000,11

 

2020003238

DOAÇÃO -
ENTRADA - ORG
EXTERNO

24/03/2020

00.394.544/0008-51 MINISTERIO DA SAUDE

16/03/2020

000307940

533.076,58

 

Página: 30
ENTRADAS DE MATERIAIS DE JANEIRO A DEZEMBRO

Valores em R$ 1,00

20/05/2021 20:49:52

 

2020003240

DOAÇÃO -
ENTRADA - ORG
EXTERNO

24/03/2020

00394544000851

MINISTÉRIO DA SAÚDE (MS)

16/03/2020

000306758

1.071,00

 

2020003243

DOAÇÃO -
ENTRADA - ORG
EXTERNO

24/03/2020

00394544000851

MINISTÉRIO DA SAÚDE (MS)

16/03/2020

000307084

1.928.265,48

 

2020005494

DOAÇÃO -
ENTRADA - ORG
EXTERNO

06/04/2020

00394544000851

MINISTÉRIO DA SAÚDE (MS)

01/01/0001

51.899,82

 

2020005496

DOAÇÃO -
ENTRADA - ORG
EXTERNO

06/04/2020

00394544000851

MINISTÉRIO DA SAÚDE (MS)

01/01/0001

130.353,48

 

2020005497

DOAÇÃO -
ENTRADA - ORG
EXTERNO

06/04/2020

00394544000851

MINISTÉRIO DA SAÚDE (MS)

01/01/0001

117.322,65

 

2020005499

DOAÇÃO -
ENTRADA - ORG
EXTERNO

06/04/2020

10266175000107
EXERCITO

LABORATÓRIO QUÍMICO FARMACÉUTICO DO

26/03/2020

000000072

211.296,00

 

2020005500

DOAÇÃO -
ENTRADA - ORG
EXTERNO

01/04/2020

00394544000851

MINISTÉRIO DA SAÚDE (MS)

01/01/0001

3.384,00

 

2020005502

DOAÇÃO -
ENTRADA - ORG
EXTERNO

01/04/2020

00394544000851

MINISTÉRIO DA SAÚDE (MS)

01/01/0001

62.622,01

 

Página: 31
ENTRADAS DE MATERIAIS DE JANEIRO A DEZEMBRO

Valores em R$ 1,00

20/05/2021 20:49:52

 

2020005504 26/03/2020 00394544000851 MINISTÉRIO DA SAÚDE (MS)

DOAÇÃO -
ENTRADA - ORG
EXTERNO

2020005569 24/03/2020 00394544000851 MINISTÉRIO DA SAÚDE (MS)
DOAÇÃO -

ENTRADA - ORG
EXTERNO

2020005570 24/03/2020 00394544000851 MINISTÉRIO DA SAÚDE (MS)
DOAÇÃO -

ENTRADA - ORG
EXTERNO

2020005573 24/03/2020 00394544000851 MINISTÉRIO DA SAÚDE (MS)
DOAÇÃO -

ENTRADA - ORG
EXTERNO

01/01/0001

01/01/0001

01/01/0001

01/01/0001

186.636,00

90.605,10

216.488,10

1.140.040,09

 

Página: 32
Er

| É ENTRADAS DE MATERIAIS DE JANEIRO A DEZEMBRO

Valores em R$ 1,00

20/05/2021 20:49:52

 

2020005576

DOAÇÃO -
ENTRADA - ORG
EXTERNO

24/03/2020

00394544000851 MINISTÉRIO DA SAÚDE (MS)

01/01/0001

217.557,56

 

2020005579

DOAÇÃO -
ENTRADA - ORG
EXTERNO

24/03/2020

00394544000851 MINISTÉRIO DA SAÚDE (MS)

01/01/0001

491.997,40

 

2020005588

DOAÇÃO -
ENTRADA - ORG
EXTERNO

31/03/2020

12320079000389 BIONOVIS S/A CIA. BRAS DE BIOTECNOL
FARMACEUTICA

24/03/2020

000001323

380.801,52

 

2020005590

DOAÇÃO -
ENTRADA - ORG
EXTERNO

30/03/2020

46070868003699 LABORATÓRIOS PFIZERLTDA

24/03/2020

000118038

380.457,00

 

2020005750

DOAÇÃO -
ENTRADA - ORG
EXTERNO

24/03/2020

00394544000851 MINISTÉRIO DA SAÚDE (MS)

01/01/0001

1.213.306,63

 

2020006078

DOAÇÃO -
ENTRADA - ORG
EXTERNO

24/03/2020

00394544000851 MINISTÉRIO DA SAÚDE (MS)

01/01/0001

147.090,17

 

2020006079

DOAÇÃO -
ENTRADA - ORG
EXTERNO

24/04/2020

33781055004980 FUNDAÇÃO OSWALDO CRUZ/INSTITUTO DE
TECNOLOGIA EM FARMACOS

16/04/2020

000057994

7.800,00

 

2020006081

DOAÇÃO -
ENTRADA - ORG
EXTERNO

20/04/2020

00394544000851 MINISTÉRIO DA SAÚDE (MS)

01/01/0001

272.530,37

 

Página: 33
ENTRADAS DE MATERIAIS DE JANEIRO A DEZEMBRO

Valores em R$ 1,00

20/05/2021 20:49:52

 

2020006082

DOAÇÃO -
ENTRADA - ORG
EXTERNO

20/04/2020

00394544000851 MINISTÉRIO DA SAÚDE (MS)

01/01/0001

7.095,00

 

2020006083

DOAÇÃO -
ENTRADA - ORG
EXTERNO

20/04/2020

00394544000851 MINISTÉRIO DA SAÚDE (MS)

01/01/0001

14.999,28

 

2020006085

DOAÇÃO -
ENTRADA - ORG
EXTERNO

20/04/2020

00394544000851 MINISTÉRIO DA SAÚDE (MS)

01/01/0001

62.622,00

 

2020006090

DOAÇÃO -
ENTRADA - ORG
EXTERNO

17/04/2020

00394544000851 MINISTÉRIO DA SAÚDE (MS)

01/01/0001

1.399,15

 

2020006091

DOAÇÃO -
ENTRADA - ORG
EXTERNO

17/04/2020

00394544000851 MINISTÉRIO DA SAÚDE (MS)

01/01/0001

547.509,24

 

2020006092

DOAÇÃO -
ENTRADA - ORG
EXTERNO

17/04/2020

00394544000851 MINISTÉRIO DA SAÚDE (MS)

01/01/0001

289.499,54

 

2020006095

DOAÇÃO -
ENTRADA - ORG
EXTERNO

16/04/2020

33781055004980 FUNDAÇÃO OSWALDO CRUZ/INSTITUTO DE
TECNOLOGIA EM FARMACOS

31/03/2020

000057862

10.897,12

 

2020006099

DOAÇÃO -
ENTRADA - ORG
EXTERNO

13/04/2020

33781055004980 FUNDAÇÃO OSWALDO CRUZ/INSTITUTO DE
TECNOLOGIA EM FARMACOS

07/04/2020

000057942

3.510,00

 

Página: 34
Er

| É ENTRADAS DE MATERIAIS DE JANEIRO A DEZEMBRO

Valores em R$ 1,00

20/05/2021 20:49:52

 

2020006136

DOAÇÃO -
ENTRADA - ORG
EXTERNO

2020006139
DOAÇÃO -

ENTRADA - ORG
EXTERNO

2020006175
DOAÇÃO -

ENTRADA - ORG
EXTERNO

08/04/2020

25/03/2020

07/04/2020

61282661000141 LABORATÓRIO QUÍMICO FARMACÊUTICO
BERGAMO LTDA

07718721000180 BEAUFOUR IPSEN FARMACEUTICA LTDA

08241754000145 SECRETARIA ESTADUAL DA SAUDE PUBLICA DO
RIO GRANDE DO NORTE

26/03/2020

17/03/2020

01/01/0001

000038093

000007420

49.446,00

5.704,50

159.894,00

 

2020006410

DOAÇÃO -
ENTRADA - ORG
EXTERNO

24/03/2020

00394544000851 MINISTÉRIO DA SAÚDE (MS)

01/01/0001

333.114,58

 

Página: 35
ENTRADAS DE MATERIAIS DE JANEIRO A DEZEMBRO

Valores em R$ 1,00

20/05/2021 20:49:52

 

2020006506

DOAÇÃO -
ENTRADA - ORG
EXTERNO

29/04/2020

00394544000851

MINISTÉRIO DA SAÚDE (MS)

01/01/0001

3.793,27

 

2020006507

DOAÇÃO -
ENTRADA - ORG
EXTERNO

02/05/2020

00394544000851

MINISTÉRIO DA SAÚDE (MS)

01/01/0001

5.491,14

 

2020006508

DOAÇÃO -
ENTRADA - ORG
EXTERNO

29/04/2020

00394544000851

MINISTÉRIO DA SAÚDE (MS)

01/01/0001

1.311,60

 

2020006509

DOAÇÃO -
ENTRADA - ORG
EXTERNO

30/04/2020

00394544000851

MINISTÉRIO DA SAÚDE (MS)

01/01/0001

47.871,34

 

2020007410

DOAÇÃO -
ENTRADA - ORG
EXTERNO

12/05/2020

00394544000851

MINISTÉRIO DA SAÚDE (MS)

01/01/0001

83.563,81

 

2020007506

DOAÇÃO -
ENTRADA - ORG
EXTERNO

04/05/2020

00394544000851

MINISTÉRIO DA SAÚDE (MS)

01/01/0001

17.443,34

 

2020007507

DOAÇÃO -
ENTRADA - ORG
EXTERNO

05/05/2020

00394544000851

MINISTÉRIO DA SAÚDE (MS)

01/01/0001

4.025,71

 

2020007509

DOAÇÃO -
ENTRADA - ORG
EXTERNO

05/05/2020

00394544000851

MINISTÉRIO DA SAÚDE (MS)

01/01/0001

644,28

 

Página: 36
Er

| É ENTRADAS DE MATERIAIS DE JANEIRO A DEZEMBRO

Valores em R$ 1,00

20/05/2021 20:49:52

 

2020007696

DOAÇÃO -
ENTRADA - ORG
EXTERNO

11/05/2020

00394544000851 MINISTÉRIO DA SAÚDE (MS)

28/04/2020

000045415

8.325,00

 

2020007706

DOAÇÃO -
ENTRADA - ORG
EXTERNO

14/05/2020

00394544000851 MINISTÉRIO DA SAÚDE (MS)

01/01/0001

47.821,39

 

2020007709

DOAÇÃO -
ENTRADA - ORG
EXTERNO

14/05/2020

00394544000851 MINISTÉRIO DA SAÚDE (MS)

01/01/0001

102.618,00

 

2020007713

DOAÇÃO -
ENTRADA - ORG
EXTERNO

14/05/2020

00394544000851 MINISTÉRIO DA SAÚDE (MS)

01/01/0001

1.287,00

 

2020008036

DOAÇÃO -
ENTRADA - ORG
EXTERNO

18/05/2020

33781055004980 FUNDAÇÃO OSWALDO CRUZ/INSTITUTO DE
TECNOLOGIA EM FARMACOS

08/05/2020

000058093

7.020,00

 

2020008388

DOAÇÃO -
ENTRADA - ORG
EXTERNO

20/05/2020

33781055004980 FUNDAÇÃO OSWALDO CRUZ/INSTITUTO DE
TECNOLOGIA EM FARMACOS

14/05/2020

000058128

12.480,00

 

2020008514

DOAÇÃO -
ENTRADA - ORG
EXTERNO

20/05/2020

00394544000851 MINISTÉRIO DA SAÚDE (MS)

01/01/0001

165.692,93

 

2020008515

DOAÇÃO -
ENTRADA - ORG
EXTERNO

20/05/2020

00394544000851 MINISTÉRIO DA SAÚDE (MS)

01/01/0001

10.258,68

 

Página: 37
ENTRADAS DE MATERIAIS DE JANEIRO A DEZEMBRO

Valores em R$ 1,00

20/05/2021 20:49:52

 

2020008516 20/05/2020 00394544000851 MINISTÉRIO DA SAÚDE (MS)

DOAÇÃO -
ENTRADA - ORG
EXTERNO

2020008560 13/05/2020 00394544000851 MINISTÉRIO DA SAÚDE (MS)
DOAÇÃO -

ENTRADA - ORG
EXTERNO

2020008741 22/05/2020 00394544000851 MINISTÉRIO DA SAÚDE (MS)
DOAÇÃO -

ENTRADA - ORG
EXTERNO

2020008742 22/05/2020 00394544000851 MINISTÉRIO DA SAÚDE (MS)
DOAÇÃO -

ENTRADA - ORG
EXTERNO

01/01/0001

01/01/0001

01/01/0001

01/01/0001

16.576,04

543.006,60

413,46

142.513,35

Página: 38
ENTRADAS DE MATERIAIS DE JANEIRO A DEZEMBRO

Valores em R$ 1,00

20/05/2021 20:49:52

 

202! 287

DOAÇÃO -
ENTRADA - ORG
EXTERNO

07/05/2020

00394544000851

MINISTÉRIO DA SAÚDE (MS)

01/01/0001

16.016,00

 

202! 37

DOAÇÃO -
ENTRADA - ORG
EXTERNO

27/05/2020

00394544000851

MINISTÉRIO DA SAÚDE (MS)

01/01/0001

4.307,36

 

202! 38º

DOAÇÃO -
ENTRADA - ORG
EXTERNO

27/05/2020

00394544000851

MINISTÉRIO DA SAÚDE (MS)

01/01/0001

136.454,40

 

2020009517

DOAÇÃO -
ENTRADA - ORG
EXTERNO

27/05/2020

00394544000851

MINISTÉRIO DA SAÚDE (MS)

01/01/0001

2.255,40

 

2020009518

DOAÇÃO -
ENTRADA - ORG
EXTERNO

27/05/2020

00394544000851

MINISTÉRIO DA SAÚDE (MS)

01/01/0001

16.328,67

 

202! 51

DOAÇÃO -
ENTRADA - ORG
EXTERNO

27/05/2020

00394544000851

MINISTÉRIO DA SAÚDE (MS)

01/01/0001

1.081,19

 

202! 1526

DOAÇÃO -
ENTRADA - ORG
EXTERNO

28/05/2020

00394544000851

MINISTÉRIO DA SAÚDE (MS)

01/01/0001

137.957,28

 

202! 1565

DOAÇÃO -
ENTRADA - ORG
EXTERNO

28/05/2020

00394544000851

MINISTÉRIO DA SAÚDE (MS)

01/01/0001

1.299,50

 

Página: 39
ENTRADAS DE MATERIAIS DE JANEIRO A DEZEMBRO

Valores em R$ 1,00

20/05/2021 20:49:52

 

2020009711

DOAÇÃO -
ENTRADA - ORG
EXTERNO

02/06/2020

00394544000851 MINISTÉRIO DA SAÚDE (MS)

01/01/0001

45.160,88

 

2020009712

DOAÇÃO -
ENTRADA - ORG
EXTERNO

02/06/2020

00394544000851 MINISTÉRIO DA SAÚDE (MS)

01/01/0001

11.771,78

 

2020009716

DOAÇÃO -
ENTRADA - ORG
EXTERNO

02/06/2020

00394544000851 MINISTÉRIO DA SAÚDE (MS)

01/01/0001

8.699,50

 

2020009718

DOAÇÃO -
ENTRADA - ORG
EXTERNO

02/06/2020

00394544000851 MINISTÉRIO DA SAÚDE (MS)

01/01/0001

90,50

 

2020010408

DOAÇÃO -
ENTRADA - ORG
EXTERNO

08/06/2020

00394544000851 MINISTÉRIO DA SAÚDE (MS)

01/01/0001

234.619,59

 

2020010416

DOAÇÃO -
ENTRADA - ORG
EXTERNO

08/06/2020

33781055004980 FUNDAÇÃO OSWALDO CRUZ/INSTITUTO DE
TECNOLOGIA EM FARMACOS

01/06/2020

000058210

35.880,00

 

2020010892

DOAÇÃO -
ENTRADA - ORG
EXTERNO

12/06/2020

00394544000851 MINISTÉRIO DA SAÚDE (MS)

01/01/0001

166.550,08

 

2020010902

DOAÇÃO -
ENTRADA - ORG
EXTERNO

12/06/2020

00394544000851 MINISTÉRIO DA SAÚDE (MS)

01/01/0001

23.452,09

 

Página: 40
ENTRADAS DE MATERIAIS DE JANEIRO A DEZEMBRO

Valores em R$ 1,00

20/05/2021 20:49:52

 

2020012100 15/06/2020 00394544000851 MINISTÉRIO DA SAÚDE (MS)

DOAÇÃO -
ENTRADA - ORG
EXTERNO

2020012102 15/06/2020 00394544000851 MINISTÉRIO DA SAÚDE (MS)
DOAÇÃO -

ENTRADA - ORG
EXTERNO

2020012103 15/06/2020 00394544000851 MINISTÉRIO DA SAÚDE (MS)
DOAÇÃO -

ENTRADA - ORG
EXTERNO

2020012105 05/06/2020 00394544000851 MINISTÉRIO DA SAÚDE (MS)
DOAÇÃO -

ENTRADA - ORG
EXTERNO

01/01/0001

01/01/0001

01/01/0001

01/01/0001

24.610,04

98.045,44

104.433,45

159.165,59

Página: 41
ENTRADAS DE MATERIAIS DE JANEIRO A DEZEMBRO

Valores em R$ 1,00

20/05/2021 20:49:52

 

2020012112

DOAÇÃO -
ENTRADA - ORG
EXTERNO

26/06/2020

33781055004980 FUNDAÇÃO OSWALDO CRUZ/INSTITUTO DE

TECNOLOGIA EM FARMACOS

23/06/2020

000033029

27.840,00

 

2020012114

DOAÇÃO -
ENTRADA - ORG
EXTERNO

25/06/2020

00394544000851

MINISTÉRIO DA SAÚDE (MS)

01/01/0001

34.590,36

 

2020012115

DOAÇÃO -
ENTRADA - ORG
EXTERNO

25/06/2020

00394544000851

MINISTÉRIO DA SAÚDE (MS)

01/01/0001

429,60

 

2020012116

DOAÇÃO -
ENTRADA - ORG
EXTERNO

25/06/2020

00394544000851

MINISTÉRIO DA SAÚDE (MS)

01/01/0001

126.452,03

 

2020012117

DOAÇÃO -
ENTRADA - ORG
EXTERNO

25/06/2020

00394544000851

MINISTÉRIO DA SAÚDE (MS)

01/01/0001

1.813,32

 

2020012118

DOAÇÃO -
ENTRADA - ORG
EXTERNO

25/06/2020

00394544000851

MINISTÉRIO DA SAÚDE (MS)

01/01/0001

58.174,20

 

2020012119

DOAÇÃO -
ENTRADA - ORG
EXTERNO

25/06/2020

00394544000851

MINISTÉRIO DA SAÚDE (MS)

01/01/0001

6.725,77

 

2020012120

DOAÇÃO -
ENTRADA - ORG
EXTERNO

25/06/2020

07718721000180

BEAUFOUR IPSEN FARMACEUTICA LTDA

17/06/2020

000007683

5.713,59

 

Página: 42
f ENTRADAS DE MATERIAIS DE JANEIRO A DEZEMBRO

Valores em R$ 1,00

20/05/2021 20:49:52

 

2020012122

DOAÇÃO -
ENTRADA - ORG
EXTERNO

25/06/2020

00394544000851 MINISTÉRIO DA SAÚDE (MS)

01/01/0001

40.864,00

 

2020012123

DOAÇÃO -
ENTRADA - ORG
EXTERNO

25/06/2020

61072393003906 WYETH INDUSTRIA FARMACEUTICA LTDA

16/06/2020

000205173

63.540,00

 

2020012124

DOAÇÃO -
ENTRADA - ORG
EXTERNO

25/06/2020

00394544000851 MINISTÉRIO DA SAÚDE (MS)

01/01/0001

35.115,50

 

2020012125

DOAÇÃO -
ENTRADA - ORG
EXTERNO

25/06/2020

33.781.055/0049-80 FUNDAÇÃO OSWALDO CRUZ/INSTITUTO DE
TECNOLOGIA EM FARMACOS

18/06/2020

000058313

29.250,00

 

2020012126

DOAÇÃO -
ENTRADA - ORG
EXTERNO

25/06/2020

33781055004980 FUNDAÇÃO OSWALDO CRUZ/INSTITUTO DE
TECNOLOGIA EM FARMACOS

18/06/2020

000032965

437.472,00

 

2020012127

DOAÇÃO -
ENTRADA - ORG
EXTERNO

23/06/2020

00394544000851 MINISTÉRIO DA SAÚDE (MS)

01/01/0001

92.567,35

 

2020012128

DOAÇÃO -
ENTRADA - ORG
EXTERNO

23/06/2020

00394544000851 MINISTÉRIO DA SAÚDE (MS)

01/01/0001

34.592,93

 

2020012129

DOAÇÃO -
ENTRADA - ORG
EXTERNO

23/06/2020

00394544000851 MINISTÉRIO DA SAÚDE (MS)

01/01/0001

8.409,49

 

Página: 43
ENTRADAS DE MATERIAIS DE JANEIRO A DEZEMBRO

Valores em R$ 1,00

20/05/2021 20:49:52

 

2020012130 23/06/2020 00394544000851 MINISTÉRIO DA SAÚDE (MS)

DOAÇÃO -
ENTRADA - ORG
EXTERNO

2020012131 23/06/2020 00394544000851 MINISTÉRIO DA SAÚDE (MS)
DOAÇÃO -

ENTRADA - ORG
EXTERNO

2020012135 19/06/2020 51780468000268 JANSSEN - CILAG FARMACEUTICA LTDA
DOAÇÃO -

ENTRADA - ORG
EXTERNO

2020012136 17/06/2020 00394544000851 MINISTÉRIO DA SAÚDE (MS)
DOAÇÃO -

ENTRADA - ORG
EXTERNO

01/01/0001

01/01/0001

15/06/2020

01/01/0001

000218807

504.658,48

20.064,00

718.758,30

150.772,83

Página: 44
ENTRADAS DE MATERIAIS DE JANEIRO A DEZEMBRO

Valores em R$ 1,00

20/05/2021 20:49:52

 

2020012137

DOAÇÃO -
ENTRADA - ORG
EXTERNO

19/06/2020

00394544000851

MINISTÉRIO DA SAÚDE (MS)

01/01/0001

1.259.966,60

 

2020012138

DOAÇÃO -
ENTRADA - ORG
EXTERNO

18/06/2020

00394544000851

MINISTÉRIO DA SAÚDE (MS)

01/01/0001

14.739,01

 

2020012140

DOAÇÃO -
ENTRADA - ORG
EXTERNO

17/06/2020

00394544000851

MINISTÉRIO DA SAÚDE (MS)

01/01/0001

1.323.168,63

 

2020012141

DOAÇÃO -
ENTRADA - ORG
EXTERNO

17/06/2020

00394544000851

MINISTÉRIO DA SAÚDE (MS)

01/01/0001

1.243,42

 

2020012142

DOAÇÃO -
ENTRADA - ORG
EXTERNO

17/06/2020

00394544000851

MINISTÉRIO DA SAÚDE (MS)

01/01/0001

555.139,80

 

2020012143

DOAÇÃO -
ENTRADA - ORG
EXTERNO

17/06/2020

00394544000851

MINISTÉRIO DA SAÚDE (MS)

01/01/0001

347.005,99

 

2020012144

DOAÇÃO -
ENTRADA - ORG
EXTERNO

16/06/2020

33.781.055/0049-80 FUNDAÇÃO OSWALDO CRUZ/INSTITUTO DE

TECNOLOGIA EM FARMACOS

09/06/2020

000058266

10.115,00

 

2020012145

DOAÇÃO -
ENTRADA - ORG
EXTERNO

15/06/2020

00394544000851

MINISTÉRIO DA SAÚDE (MS)

01/01/0001

139.928,95

 

Página: 45
ENTRADAS DE MATERIAIS DE JANEIRO A DEZEMBRO

Valores em R$ 1,00

20/05/2021 20:49:52

 

2020012147

DOAÇÃO -
ENTRADA - ORG
EXTERNO

09/06/2020

00394544000851

MINISTÉRIO DA SAÚDE (MS)

01/01/0001

2.019,34

 

2020012454

DOAÇÃO -
ENTRADA - ORG
EXTERNO

30/06/2020

00394544000851

MINISTÉRIO DA SAÚDE (MS)

01/01/0001

4.928,00

 

2020012455

DOAÇÃO -
ENTRADA - ORG
EXTERNO

30/06/2020

00394544000851

MINISTÉRIO DA SAÚDE (MS)

01/01/0001

148.815,98

 

2020012456

DOAÇÃO -
ENTRADA - ORG
EXTERNO

30/06/2020

00394544000851

MINISTÉRIO DA SAÚDE (MS)

01/01/0001

138.109,00

 

2020012457

DOAÇÃO -
ENTRADA - ORG
EXTERNO

29/06/2020

00394544000851

MINISTÉRIO DA SAÚDE (MS)

01/01/0001

12.732,57

 

2020012458

DOAÇÃO -
ENTRADA - ORG
EXTERNO

29/06/2020

00394544000851

MINISTÉRIO DA SAÚDE (MS)

01/01/0001

832,50

 

2020013971

DOAÇÃO -
ENTRADA - ORG
EXTERNO

01/07/2020

00394544000851

MINISTÉRIO DA SAÚDE (MS)

01/01/0001

275.070,15

 

2020013973

DOAÇÃO -
ENTRADA - ORG
EXTERNO

01/07/2020

00394544000851

MINISTÉRIO DA SAÚDE (MS)

01/01/0001

114.592,31

 

Página: 46
Er

| É ENTRADAS DE MATERIAIS DE JANEIRO A DEZEMBRO

Valores em R$ 1,00

20/05/2021 20:49:52

 

2020013976

DOAÇÃO -
ENTRADA - ORG
EXTERNO

2020013977
DOAÇÃO -

ENTRADA - ORG
EXTERNO

2020013979

DOAÇÃO -
ENTRADA - ORG
EXTERNO

01/07/2020

01/07/2020

01/07/2020

33.781.055/0049-80 FUNDAÇÃO OSWALDO CRUZI/INSTITUTO DE
TECNOLOGIA EM FARMACOS

00394544000851 MINISTÉRIO DA SAÚDE (MS)

33781055004980 FUNDAÇÃO OSWALDO CRUZ/INSTITUTO DE
TECNOLOGIA EM FARMACOS

25/06/2020

01/01/0001

23/06/2020

000058368

000058339

20.670,00

20.484,07

29.327,50

 

2020014033

DOAÇÃO -
ENTRADA - ORG
EXTERNO

09/07/2020

00394544000851 MINISTÉRIO DA SAÚDE (MS)

01/01/0001

437.106,97

 

Página: 47
ENTRADAS DE MATERIAIS DE JANEIRO A DEZEMBRO

Valores em R$ 1,00

20/05/2021 20:49:52

 

2020014281

DOAÇÃO -
ENTRADA - ORG
EXTERNO

17/07/2020

00394544000851 MINISTÉRIO DA SAÚDE (MS)

01/01/0001

134.754,22

 

2020014283

DOAÇÃO -
ENTRADA - ORG
EXTERNO

20/04/2020

00394544000851 MINISTÉRIO DA SAÚDE (MS)

01/01/0001

32.515,58

 

2020014512

DOAÇÃO -
ENTRADA - ORG
EXTERNO

14/07/2020

61072393003906 WYETH INDUSTRIA FARMACEUTICA LTDA

02/07/2020

000206673

139.638,60

 

2020015079

DOAÇÃO -
ENTRADA - ORG
EXTERNO

14/07/2020

00394544000851 MINISTÉRIO DA SAÚDE (MS)

01/01/0001

43.599,93

 

2020015160

DOAÇÃO -
ENTRADA - ORG
EXTERNO

21/07/2020

00394544000851 MINISTÉRIO DA SAÚDE (MS)

01/01/0001

4.676,40

 

2020015559

DOAÇÃO -
ENTRADA - ORG
EXTERNO

15/07/2020

00394544000851 MINISTÉRIO DA SAÚDE (MS)

01/01/0001

421.636,47

 

2020015649

DOAÇÃO -
ENTRADA - ORG
EXTERNO

21/07/2020

00.394.544/0008-51 MINISTERIO DA SAUDE

01/01/0001

9.005,80

 

2020016269

DOAÇÃO -
ENTRADA - ORG
EXTERNO

30/07/2020

00394544000851 MINISTÉRIO DA SAÚDE (MS)

01/01/0001

1.794,76

 

Página: 48
ENTRADAS DE MATERIAIS DE JANEIRO A DEZEMBRO

Valores em R$ 1,00

20/05/2021 20:49:52

 

2020016273

DOAÇÃO -
ENTRADA - ORG
EXTERNO

30/07/2020

00394544000851

MINISTÉRIO DA SAÚDE (MS)

01/01/0001

4.918,72

 

2020016276

DOAÇÃO -
ENTRADA - ORG
EXTERNO

30/07/2020

00394544000851

MINISTÉRIO DA SAÚDE (MS)

01/01/0001

46.801,81

 

2020016278

DOAÇÃO -
ENTRADA - ORG
EXTERNO

30/07/2020

00394544000851

MINISTÉRIO DA SAÚDE (MS)

01/01/0001

17.764,46

 

2020016281

DOAÇÃO -
ENTRADA - ORG
EXTERNO

30/07/2020

00394544000851

MINISTÉRIO DA SAÚDE (MS)

01/01/0001

291.682,73

 

2020018916

DOAÇÃO -
ENTRADA - ORG
EXTERNO

19/08/2020

00394544000851

MINISTÉRIO DA SAÚDE (MS)

01/01/0001

2.325,45

 

2020018919

DOAÇÃO -
ENTRADA - ORG
EXTERNO

19/08/2020

00394544000851

MINISTÉRIO DA SAÚDE (MS)

01/01/0001

3.981,82

 

2020018920

DOAÇÃO -
ENTRADA - ORG
EXTERNO

19/08/2020

00394544000851

MINISTÉRIO DA SAÚDE (MS)

01/01/0001

36.953,78

 

2020018923

DOAÇÃO -
ENTRADA - ORG
EXTERNO

19/08/2020

00394544000851

MINISTÉRIO DA SAÚDE (MS)

01/01/0001

159.060,58

 

Página: 49
ENTRADAS DE MATERIAIS DE JANEIRO A DEZEMBRO

Valores em R$ 1,00

20/05/2021 20:49:52

 

2020018924 11/08/2020 00394544000851 MINISTÉRIO DA SAÚDE (MS)

DOAÇÃO -
ENTRADA - ORG
EXTERNO

2020019101 11/08/2020 00394544000851 MINISTÉRIO DA SAÚDE (MS)
DOAÇÃO -

ENTRADA - ORG
EXTERNO

2020019105 06/08/2020 00394544000851 MINISTÉRIO DA SAÚDE (MS)
DOAÇÃO -

ENTRADA - ORG
EXTERNO

2020019110 03/08/2020 00394544000851 MINISTÉRIO DA SAÚDE (MS)
DOAÇÃO -

ENTRADA - ORG
EXTERNO

01/01/0001

01/01/0001

01/01/0001

01/01/0001

19.800,00

304.908,59

10.032,00

604,44

 

Página: 50
Er

| É ENTRADAS DE MATERIAIS DE JANEIRO A DEZEMBRO

Valores em R$ 1,00

20/05/2021 20:49:52

 

2020019115

DOAÇÃO -
ENTRADA - ORG
EXTERNO

03/08/2020

00394544000851

MINISTÉRIO DA SAÚDE (MS)

01/01/0001

278.788,05

 

2020019120

DOAÇÃO -
ENTRADA - ORG
EXTERNO

12/08/2020

07986222000336 BIOGEN IDEC BRASIL PRODUTOS

FARMACEUTICOS LTDA

07/08/2020

000012383

78.988,56

 

2020019878

DOAÇÃO -
ENTRADA - ORG
EXTERNO

31/08/2020

10.572.048/0001-28 SECRETARIA ESTADUAL DE SAUDE DE

PERNAMBUCO

01/01/0001

1.091,39

 

2020020129

DOAÇÃO -
ENTRADA - ORG
EXTERNO

25/08/2020

00394544000851

MINISTÉRIO DA SAÚDE (MS)

01/01/0001

2.577,60

 

2020020133

DOAÇÃO -
ENTRADA - ORG
EXTERNO

25/08/2020

00394544000851

MINISTÉRIO DA SAÚDE (MS)

01/01/0001

112.246,93

 

2020020161

DOAÇÃO -
ENTRADA - ORG
EXTERNO

18/08/2020

00394544000851

MINISTÉRIO DA SAÚDE (MS)

01/01/0001

606.992,88

 

2020020207

DOAÇÃO -
ENTRADA - ORG
EXTERNO

27/08/2020

00394544000851

MINISTÉRIO DA SAÚDE (MS)

01/01/0001

157.665,96

 

2020020210

DOAÇÃO -
ENTRADA - ORG
EXTERNO

19/08/2020

00394544000851

MINISTÉRIO DA SAÚDE (MS)

01/01/0001

36.711,76

 

Página: 51
ENTRADAS DE MATERIAIS DE JANEIRO A DEZEMBRO

Valores em R$ 1,00

20/05/2021 20:49:52

 

2020020450

DOAÇÃO -
ENTRADA - ORG
EXTERNO

01/07/2020

00394544000851 MINISTÉRIO DA SAÚDE (MS)

01/01/0001

20.484,07

 

2020020809

DOAÇÃO -
ENTRADA - ORG
EXTERNO

08/09/2020

00394544000851 MINISTÉRIO DA SAÚDE (MS)

01/01/0001

7.611,51

 

2020020816

DOAÇÃO -
ENTRADA - ORG
EXTERNO

02/09/2020

00394544000851 MINISTÉRIO DA SAÚDE (MS)

01/01/0001

72.988,35

 

2020020844

DOAÇÃO -
ENTRADA - ORG
EXTERNO

03/09/2020

11.376.952/0001-20 LABORATÓRIO FARMACÊUTICO DA MARINHA

14/08/2020

000053410

1.052,64

 

2020020850

DOAÇÃO -
ENTRADA - ORG
EXTERNO

03/09/2020

11.376.952/0001-20 LABORATÓRIO FARMACÊUTICO DA MARINHA

13/08/2020

000053397

380,80

 

2020020914

DOAÇÃO -
ENTRADA - ORG
EXTERNO

27/08/2020

00394544000851 MINISTÉRIO DA SAÚDE (MS)

01/01/0001

27.556,79

 

2020020946

DOAÇÃO -
ENTRADA - ORG
EXTERNO

31/08/2020

00394544000851 MINISTÉRIO DA SAÚDE (MS)

01/01/0001

15.046,48

 

2020020954

DOAÇÃO -
ENTRADA - ORG
EXTERNO

09/09/2020

11.376.952/0001-20 LABORATÓRIO FARMACÊUTICO DA MARINHA

31/08/2020

000053437

24.229,41

 

Página: 52
ENTRADAS DE MATERIAIS DE JANEIRO A DEZEMBRO

Valores em R$ 1,00

20/05/2021 20:49:52

 

2020020958

DOAÇÃO -
ENTRADA - ORG
EXTERNO

2020021332

DOAÇÃO -
ENTRADA - ORG
EXTERNO

2020021515
DOAÇÃO -

ENTRADA - ORG
EXTERNO

2020022456
DOAÇÃO -

ENTRADA - ORG
EXTERNO

09/09/2020

14/09/2020

15/09/2020

23/09/2020

00394544000851 MINISTÉRIO DA SAÚDE (MS)

10.572.048/0001-28 SECRETARIA ESTADUAL DE SAUDE DE
PERNAMBUCO

00394544000851 MINISTÉRIO DA SAÚDE (MS)

00394544000851 MINISTÉRIO DA SAÚDE (MS)

01/01/0001

01/01/0001

01/01/0001

01/01/0001

179.492,88

25.625,00

102.879,20

846.128,27

Página: 53
f ENTRADAS DE MATERIAIS DE JANEIRO A DEZEMBRO

Valores em R$ 1,00

20/05/2021 20:49:52

 

2020022460

DOAÇÃO -
ENTRADA - ORG
EXTERNO

22/09/2020

33.781.055/0049-80 FUNDAÇÃO OSWALDO CRUZI/INSTITUTO DE
TECNOLOGIA EM FARMACOS

17/09/2020

000058733

54.205,00

 

2020022618

DOAÇÃO -
ENTRADA - ORG
EXTERNO

24/09/2020

00394544000851 MINISTÉRIO DA SAÚDE (MS)

01/01/0001

26.602,27

 

2020022632

DOAÇÃO -
ENTRADA - ORG
EXTERNO

24/09/2020

00394544000851 MINISTÉRIO DA SAÚDE (MS)

01/01/0001

29.037,42

 

2020022636

DOAÇÃO -
ENTRADA - ORG
EXTERNO

24/09/2020

61072393003906 WYETH INDUSTRIA FARMACEUTICA LTDA

19/07/2020

000213264

22.027,20

 

2020022761

DOAÇÃO -
ENTRADA - ORG
EXTERNO

25/09/2020

07986222000336 BIOGEN IDEC BRASIL PRODUTOS
FARMACEUTICOS LTDA

17/09/2020

000012652

99.456,00

 

2020022854

DOAÇÃO -
ENTRADA - ORG
EXTERNO

28/09/2020

00394544000851 MINISTÉRIO DA SAÚDE (MS)

01/01/0001

94.105,48

 

2020022855

DOAÇÃO -
ENTRADA - ORG
EXTERNO

28/09/2020

00394544000851 MINISTÉRIO DA SAÚDE (MS)

01/01/0001

159.060,58

 

2020022998

DOAÇÃO -
ENTRADA - ORG
EXTERNO

29/09/2020

61072393003906 WYETH INDUSTRIA FARMACEUTICA LTDA

21/09/2020

000213612

132.289,20

 

Página: 54
ENTRADAS DE MATERIAIS DE JANEIRO A DEZEMBRO

Valores em R$ 1,00

20/05/2021 20:49:52

 

2020023227

DOAÇÃO -
ENTRADA - ORG
EXTERNO

01/10/2020

00394544000851 MINISTÉRIO DA SAÚDE (MS)

01/01/0001

10.521,60

 

2020023277

DOAÇÃO -
ENTRADA - ORG
EXTERNO

01/10/2020

00394544000851 MINISTÉRIO DA SAÚDE (MS)

01/01/0001

4.833,00

 

2020023284

DOAÇÃO -
ENTRADA - ORG
EXTERNO

01/10/2020

00394544000851 MINISTÉRIO DA SAÚDE (MS)

01/01/0001

157.972,47

 

2020023319

DOAÇÃO -
ENTRADA - ORG
EXTERNO

01/10/2020

00394544000851 MINISTÉRIO DA SAÚDE (MS)

01/01/0001

126.170,11

 

2020023628

DOAÇÃO -
ENTRADA - ORG
EXTERNO

06/10/2020

00.394.544/0008-51 MINISTERIO DA SAUDE

01/01/0001

311.598,08

 

2020023719

DOAÇÃO -
ENTRADA - ORG
EXTERNO

07/10/2020

00.394.544/0008-51 MINISTERIO DA SAUDE

01/01/0001

480,02

 

2020023721

DOAÇÃO -
ENTRADA - ORG
EXTERNO

07/10/2020

00.394.544/0008-51 MINISTERIO DA SAUDE

01/01/0001

12.288,14

 

2020023861

DOAÇÃO -
ENTRADA - ORG
EXTERNO

08/10/2020

00.394.544/0008-51 MINISTERIO DA SAUDE

01/01/0001

512.793,75

 

Página: 55
ENTRADAS DE MATERIAIS DE JANEIRO A DEZEMBRO

Valores em R$ 1,00

20/05/2021 20:49:52

 

2020023932 08/10/2020 00.394.544/0008-51 MINISTERIO DA SAUDE

DOAÇÃO -
ENTRADA - ORG
EXTERNO

2020023939 08/10/2020 00.394.544/0008-51 MINISTERIO DA SAUDE
DOAÇÃO -

ENTRADA - ORG
EXTERNO

2020023945 08/10/2020 00.394.544/0008-51 MINISTERIO DA SAUDE
DOAÇÃO -

ENTRADA - ORG
EXTERNO

2020024226 13/10/2020 10.877.926/0001-13 LABORATORIO FAR PE GOV MIGUEL ARRAES
DOAÇÃO -

ENTRADA - ORG
EXTERNO

01/01/0001

01/01/0001

01/01/0001

22/09/2020

000095015

469.183,57

439.652,41

183.352,98

103.161,60

Página: 56
Er

| É ENTRADAS DE MATERIAIS DE JANEIRO A DEZEMBRO

Valores em R$ 1,00

20/05/2021 20:49:52

 

2020024246

DOAÇÃO -
ENTRADA - ORG
EXTERNO

13/10/2020

10.877.926/0001-13 LABORATORIO FAR PE GOV MIGUEL ARRAES

24/09/2020

000095079

81.503,40

 

2020024250

DOAÇÃO -
ENTRADA - ORG
EXTERNO

13/10/2020

10.877.926/0001-13 LABORATORIO FAR PE GOV MIGUEL ARRAES
SA

29/09/2020

000095146

100.027,20

 

2020024254

DOAÇÃO -
ENTRADA - ORG
EXTERNO

13/10/2020

10.877.926/0001-13 LABORATORIO FAR PE GOV MIGUEL ARRAES
SA

29/09/2020

000095159

25.649,46

 

2020024848

DOAÇÃO -
ENTRADA - ORG
EXTERNO

14/10/2020

00394544000851 MINISTÉRIO DA SAÚDE (MS)

01/01/0001

57.103,20

 

2020024867

DOAÇÃO -
ENTRADA - ORG
EXTERNO

16/10/2020

00394544000851 MINISTÉRIO DA SAÚDE (MS)

01/01/0001

32.434,47

 

2020024869

DOAÇÃO -
ENTRADA - ORG
EXTERNO

14/10/2020

12320079000389 BIONOVIS S/A CIA. BRAS DE BIOTECNOL
FARMACEUTICA

05/10/2020

000001896

60.189,48

 

2020024870

DOAÇÃO -
ENTRADA - ORG
EXTERNO

14/10/2020

12320079000389 BIONOVIS S/A CIA. BRAS DE BIOTECNOL
FARMACEUTICA

05/10/2020

000001893

669.258,72

 

Página: 57
ENTRADAS DE MATERIAIS DE JANEIRO A DEZEMBRO

Valores em R$ 1,00

20/05/2021 20:49:52

 

2020024874

DOAÇÃO -
ENTRADA - ORG
EXTERNO

14/10/2020

00394544000851 MINISTÉRIO DA SAÚDE (MS)

01/01/0001

12.946,94

 

2020024914

DOAÇÃO -
ENTRADA - ORG
EXTERNO

14/10/2020

12320079000389 BIONOVIS S/A CIA. BRAS DE BIOTECNOL
FARMACEUTICA

05/10/2020

000001904

589.560,48

 

2020024915

DOAÇÃO -
ENTRADA - ORG
EXTERNO

14/10/2020

00394544000851 MINISTÉRIO DA SAÚDE (MS)

01/01/0001

34.909,48

 

2020025173

DOAÇÃO -
ENTRADA - ORG
EXTERNO

20/10/2020

00394544000851 MINISTÉRIO DA SAÚDE (MS)

01/01/0001

7.530,96

 

2020025378

DOAÇÃO -
ENTRADA - ORG
EXTERNO

21/10/2020

05.333.542/0004-42 TEVA FARMACEUTICA LTDA (ITAPEVI)

14/10/2020

000000036

102.435,96

 

2020025381

DOAÇÃO -
ENTRADA - ORG
EXTERNO

21/10/2020

61072393003906 WYETH INDUSTRIA FARMACEUTICA LTDA

15/10/2020

000215790

39.394,80

 

2020025763

DOAÇÃO -
ENTRADA - ORG
EXTERNO

27/10/2020

00.394.544/0008-51 MINISTERIO DA SAUDE

01/01/0001

809.550,60

 

2020026286

DOAÇÃO -
ENTRADA - ORG
EXTERNO

27/08/2020

00.394.544/0008-51 MINISTERIO DA SAUDE

01/01/0001

9.054,98

 

Página: 58
f ENTRADAS DE MATERIAIS DE JANEIRO A DEZEMBRO

Valores em R$ 1,00

20/05/2021 20:49:52

 

2020026352

DOAÇÃO -
ENTRADA - ORG
EXTERNO

2020026649
DOAÇÃO -

ENTRADA - ORG
EXTERNO

2020028065
DOAÇÃO -

ENTRADA - ORG
EXTERNO

2020028542

DOAÇÃO -
ENTRADA - ORG
EXTERNO

2020028545
DOAÇÃO -

ENTRADA - ORG
EXTERNO

30/10/2020

04/11/2020

19/11/2020

23/11/2020

23/11/2020

00.394.544/0008-51 MINISTERIO DA SAUDE

00.394.544/0008-51 MINISTERIO DA SAUDE

00.394.544/0008-51 MINISTERIO DA SAUDE

10.877.926/0001-13 LABORATORIO FAR PE GOV MIGUEL ARRAES

10.877.926/0001-13 LABORATORIO FAR PE GOV MIGUEL ARRAES
SA

01/01/0001

01/01/0001

01/01/0001

01/01/0001

01/01/0001

61.749,66

31.188,01

83.199,23

578.850,30

43.724,40

 

Página: 59
ENTRADAS DE MATERIAIS DE JANEIRO A DEZEMBRO

Valores em R$ 1,00

20/05/2021 20:49:52

 

2020031631

DOAÇÃO -
ENTRADA - ORG
EXTERNO

10/12/2020

00.394.544/0008-51

MINISTERIO DA SAUDE

01/01/0001

42.647,66

 

2020031638

DOAÇÃO -
ENTRADA - ORG
EXTERNO

10/12/2020

00.394.544/0008-51

MINISTERIO DA SAUDE

01/01/0001

3.968,00

 

2020031652

DOAÇÃO -
ENTRADA - ORG
EXTERNO

10/12/2020

00.394.544/0008-51

MINISTERIO DA SAUDE

01/01/0001

1.152,01

 

2020031724

DOAÇÃO -
ENTRADA - ORG
EXTERNO

10/12/2020

00.394.544/0008-51

MINISTERIO DA SAUDE

01/01/0001

1.290,00

 

2020031726

DOAÇÃO -
ENTRADA - ORG
EXTERNO

10/12/2020

00.394.544/0008-51

MINISTERIO DA SAUDE

01/01/0001

1.040,76

 

2020031729

DOAÇÃO -
ENTRADA - ORG
EXTERNO

10/12/2020

00.394.544/0008-51

MINISTERIO DA SAUDE

01/01/0001

4.216,52

 

2020033357

DOAÇÃO -
ENTRADA - ORG
EXTERNO

15/12/2020

00.394.544/0008-51

MINISTERIO DA SAUDE

01/01/0001

919.875,05

 

2020033623

DOAÇÃO -
ENTRADA - ORG
EXTERNO

16/12/2020

00394544000851 MINISTÉRIO DA SAÚDE (MS)

01/01/0001

5.242,92

 

Página: 60
ENTRADAS DE MATERIAIS DE JANEIRO A DEZEMBRO

Valores em R$ 1,00

20/05/2021 20:49:52

 

2020033630

DOAÇÃO -
ENTRADA - ORG
EXTERNO

17/12/2020

00394544000851 MINISTÉRIO DA SAÚDE (MS)

01/01/0001

318.096,88

 

2020033637

DOAÇÃO -
ENTRADA - ORG
EXTERNO

17/12/2020

00394544000851 MINISTÉRIO DA SAÚDE (MS)

01/01/0001

20.636,29

 

2020033661

DOAÇÃO -
ENTRADA - ORG
EXTERNO

15/12/2020

00.394.544/0008-51 MINISTERIO DA SAUDE

01/01/0001

30.255,38

 

2020033870

DOAÇÃO -
ENTRADA - ORG
EXTERNO

16/12/2020

00394544000851 MINISTÉRIO DA SAÚDE (MS)

01/01/0001

188.405,97

 

2020033908

DOAÇÃO -
ENTRADA - ORG
EXTERNO

15/12/2020

00.394.544/0008-51 MINISTERIO DA SAUDE

01/01/0001

9.077,51

 

2020034751

DOAÇÃO -
ENTRADA - ORG
EXTERNO

16/12/2020

00394544000851 MINISTÉRIO DA SAÚDE (MS)

01/01/0001

93.079,94

 

2020034785

DOAÇÃO -
ENTRADA - ORG
EXTERNO

16/12/2020

07986222000336 BIOGEN IDEC BRASIL PRODUTOS
FARMACEUTICOS LTDA

10/12/2020

000013156

330.999,68

 

2020034820

DOAÇÃO -
ENTRADA - ORG
EXTERNO

21/12/2020

07986222000336 BIOGEN IDEC BRASIL PRODUTOS
FARMACEUTICOS LTDA

15/12/2020

000013227

106.086,40

 

Página: 61
ENTRADAS DE MATERIAIS DE JANEIRO A DEZEMBRO

Valores em R$ 1,00

20/05/2021 20:49:52

 

2020034894 22/12/2020 00.394.544/0008-51 MINISTERIO DA SAUDE

DOAÇÃO -
ENTRADA - ORG
EXTERNO

2020034897 22n212020 00.394.544/0008-51 MINISTERIO DA SAUDE
DOAÇÃO -

ENTRADA - ORG
EXTERNO

2020034901 18/12/2020 11.376.952/0001-20 LABORATÓRIO FARMACÊUTICO DA MARINHA
DOAÇÃO -

ENTRADA - ORG
EXTERNO

2020034902 15/12/2020 00.394.544/0008-51 MINISTERIO DA SAUDE
DOAÇÃO -

ENTRADA - ORG
EXTERNO

01/01/0001

01/01/0001

03/12/2020

01/01/0001

000053659

9.666,00

50.025,83

233.503,20

33.969,63

Página: 62
ENTRADAS DE MATERIAIS DE JANEIRO A DEZEMBRO

Valores em R$ 1,00

20/05/2021 20:49:52

 

2020034910

DOAÇÃO -
ENTRADA - ORG
EXTERNO

21/12/2020

00394544000851 MINISTÉRIO DA SAÚDE (MS)

01/01/0001

84.945,61

 

2020034914

DOAÇÃO -
ENTRADA - ORG
EXTERNO

21/12/2020

00.394.544/0008-51 MINISTERIO DA SAUDE

01/01/0001

171.995,76

 

2020034919

DOAÇÃO -
ENTRADA - ORG
EXTERNO

22/12/2020

10266175000107 LABORATÓRIO QUÍMICO FARMACÊUTICO DO
EXERCITO

27/11/2020

000028520

83.080,00

 

2020034930

DOAÇÃO -
ENTRADA - ORG
EXTERNO

17/12/2020

07718721000180 BEAUFOUR IPSEN FARMACEUTICA LTDA

14/12/2020

000008256

9.516,59

 

2020034937

DOAÇÃO -
ENTRADA - ORG
EXTERNO

21/12/2020

00.394.544/0008-51 MINISTERIO DA SAUDE

01/01/0001

484.622,98

 

2020034947

DOAÇÃO -
ENTRADA - ORG
EXTERNO

21/12/2020

00.394.544/0008-51 MINISTERIO DA SAUDE

01/01/0001

91.976,81

 

2020034958

DOAÇÃO -
ENTRADA - ORG
EXTERNO

15/12/2020

00.394.544/0008-51 MINISTERIO DA SAUDE

01/01/0001

32.208,29

 

2020034961

DOAÇÃO -
ENTRADA - ORG
EXTERNO

15/12/2020

00.394.544/0008-51 MINISTERIO DA SAUDE

01/01/0001

31.826,88

 

Página: 63
É. Valores em R$ 1,00

ENTRADAS DE MATERIAIS DE JANEIRO A DEZEMBRO
20/05/2021 20:49:52

 

2020034979 21/12/2020 00394544000851 MINISTÉRIO DA SAÚDE (MS) 01/01/0001 34.317,18

DOAÇÃO -
ENTRADA - ORG
EXTERNO

2020034984 21/12/2020 00394544000851 MINISTÉRIO DA SAÚDE (MS) 01/01/0001 4.672,04
DOAÇÃO -

ENTRADA - ORG
EXTERNO

2020035498 2812/2020 00.394.544/0008-51 MINISTERIO DA SAUDE 01/01/0001 199.810,23
DOAÇÃO -

ENTRADA - ORG
EXTERNO

2020035501 2812/2020 00.394.544/0008-51 MINISTERIO DA SAUDE 01/01/0001 194.809,72
DOAÇÃO -

ENTRADA - ORG
EXTERNO

2020035516 2812/2020 00.394.544/0008-51 MINISTERIO DA SAUDE 01/01/0001 200.487,35
DOAÇÃO -

ENTRADA - ORG
EXTERNO

2020035625 2812/2020 00.394.544/0008-51 MINISTERIO DA SAUDE 01/01/0001 104.915,83
DOAÇÃO -

ENTRADA - ORG
EXTERNO

2020035631 2812/2020 00.394.544/0008-51 MINISTERIO DA SAUDE 01/01/0001 456.346,18
DOAÇÃO -

ENTRADA - ORG
EXTERNO

2020035756 30/12/2020 00394544000851 MINISTÉRIO DA SAÚDE (MS) 01/01/0001 174.432,64
DOAÇÃO -

ENTRADA - ORG
EXTERNO

 

 

 

 

 

 

 

 

44.562.619,95

Página: 64
Er

| É ENTRADAS DE MATERIAIS DE JANEIRO A DEZEMBRO

Valores em R$ 1,00

20/05/2021 20:49:52

 

SES - SEDE - CENTRAL

Entrada Nº
2020003176
DOAÇÃO -

ENTRADA - ORG
EXTERNO

DT. Entrada
26/03/2020

Fornecedor / Desc. Empenho

00.394.544/0008-51

MINISTERIO DA SAUDE

Data NF
19/03/2020

Nº Nota Fiscal
000308810

Valor Entrada
18.241,35

Empenho Fonte

 

2020003717

DOAÇÃO -
ENTRADA - ORG
EXTERNO

31/03/2020

00.394.544/0008-51

MINISTERIO DA SAUDE

25/03/2020

000309480

16.371,88

 

2020003719

DOAÇÃO -
ENTRADA - ORG
EXTERNO

31/03/2020

00.394.544/0008-51

MINISTERIO DA SAUDE

25/03/2020

000309492

1.858,56

 

2020003723

DOAÇÃO -
ENTRADA - ORG
EXTERNO

31/03/2020

00.394.544/0008-51

MINISTERIO DA SAUDE

25/03/2020

000309626

130.000,07

 

2020003725

DOAÇÃO -
ENTRADA - ORG
EXTERNO

31/03/2020

00.394.544/0008-51

MINISTERIO DA SAUDE

21/03/2020

000309252

76.615,26

 

2020003797

DOAÇÃO -
ENTRADA - ORG
EXTERNO

01/04/2020

00.394.544/0008-51

MINISTERIO DA SAUDE

25/03/2020

900309480

7,00

 

2020003926

DOAÇÃO -
ENTRADA - ORG
EXTERNO

02/04/2020

00.394.544/0008-51

MINISTERIO DA SAUDE

28/03/2020

000309996

301.028,45

 

2020004816

DOAÇÃO -
ENTRADA - ORG
EXTERNO

16/04/2020

00.394.544/0008-51

MINISTERIO DA SAUDE

10/04/2020

000311376

39.565,23

 

Página: 65
ENTRADAS DE MATERIAIS DE JANEIRO A DEZEMBRO

Valores em R$ 1,00

20/05/2021 20:49:52

 

2020004817

DOAÇÃO -
ENTRADA - ORG
EXTERNO

16/04/2020

00.394.544/0008-51

MINISTERIO DA SAUDE

10/04/2020

000311316

687,96

 

2020006355

DOAÇÃO -
ENTRADA - ORG
EXTERNO

29/04/2020

00.394.544/0008-51

MINISTERIO DA SAUDE

23/04/2020

000031005

295.922,49

 

2020006356

DOAÇÃO -
ENTRADA - ORG
EXTERNO

29/04/2020

00.394.544/0008-51

MINISTERIO DA SAUDE

23/04/2020

000312986

43.446,72

 

2020006621

DOAÇÃO -
ENTRADA - ORG
EXTERNO

04/05/2020

00.394.544/0008-51

MINISTERIO DA SAUDE

30/04/2020

000314033

213.590,23

 

2020007132

DOAÇÃO -
ENTRADA - ORG
EXTERNO

08/05/2020

00.394.544/0008-51

MINISTERIO DA SAUDE

15/04/2020

000311916

587.778,70

 

2020007356

DOAÇÃO -
ENTRADA - ORG
EXTERNO

12/05/2020

00.394.544/0008-51

MINISTERIO DA SAUDE

15/04/2020

000311887

8.906,96

 

2020008685

DOAÇÃO -
ENTRADA - ORG
EXTERNO

22/05/2020

00.394.544/0008-51

MINISTERIO DA SAUDE

14/05/2020

000315574

5.290,56

 

2020008716

DOAÇÃO -
ENTRADA - ORG
EXTERNO

22/05/2020

00.394.544/0008-51

MINISTERIO DA SAUDE

14/05/2020

000315582

893.804,66

 

Página: 66
ENTRADAS DE MATERIAIS DE JANEIRO A DEZEMBRO

Valores em R$ 1,00

20/05/2021 20:49:52

 

202! 704

DOAÇÃO -
ENTRADA - ORG
EXTERNO

2020010740
DOAÇÃO -

ENTRADA - ORG
EXTERNO

2020010746
DOAÇÃO -

ENTRADA - ORG
EXTERNO

2020011812
DOAÇÃO -

ENTRADA - ORG
EXTERNO

02/06/2020

15/06/2020

15/06/2020

25/06/2020

00.394.544/0008-51 MINISTERIO DA SAUDE

00.394.544/0008-51 MINISTERIO DA SAUDE

00.394.544/0008-51 MINISTERIO DA SAUDE

00.394.544/0008-51 MINISTERIO DA SAUDE

22/05/2020

05/06/2020

04/06/2020

10/06/2020

000316480

000317905

000317765

000318278

948.067,92

484.503,39

1.456.061,48

688.344,86

Página: 67
ENTRADAS DE MATERIAIS DE JANEIRO A DEZEMBRO

Valores em R$ 1,00

20/05/2021 20:49:52

 

2020013347

DOAÇÃO -
ENTRADA - ORG
EXTERNO

2020014429
DOAÇÃO -

ENTRADA - ORG
EXTERNO

2020016780
DOAÇÃO -

ENTRADA - ORG
EXTERNO

2020017867
DOAÇÃO -

ENTRADA - ORG
EXTERNO

08/07/2020

20/07/2020

06/08/2020

17/08/2020

00.394.544/0008-51 MINISTERIO DA SAUDE

00.394.544/0008-51 MINISTERIO DA SAUDE

00.394.544/0008-51 MINISTERIO DA SAUDE

00.394.544/0008-51 MINISTERIO DA SAUDE

29/06/2020

09/07/2020

23/07/2020

06/08/2020

000320585

000321439

000323163

000324882

911.363,67

1.168.074,90

1.679.598,40

708.067,32

10.677.198,02

Página: 68
Er

ns

ENTRADAS DE MATERIAIS DE JANEIRO A DEZEMBRO

Valores em R$ 1,00

20/05/2021 20:49:52

 

SES - HEMOCENTRO COORDENADOR DE JOAO PESSOA - CENTRAL

Entrada Nº
2020000547

DOAÇÃO -
ENTRADA - ORG
EXTERNO

DT. Entrada
22/01/2020

Fornecedor / Desc. Empenho
00.394.544/0008-51 MINISTERIO DA SAUDE

Data NF
14/01/2020

Nº Nota Fiscal
000301410

Valor Entrada
119.150,64

Empenho Fonte

 

2020000552

DOAÇÃO -
ENTRADA - ORG
EXTERNO

04/02/2020

00.394.544/0008-51 MINISTERIO DA SAUDE

01/01/0001

790.667,24

 

2020003904

DOAÇÃO -
ENTRADA - ORG
EXTERNO

02/04/2020

08778268005049 UPA SANTA RITA

02/04/2020

000020420

22,50

 

2020007131

DOAÇÃO -
ENTRADA - ORG
EXTERNO

08/05/2020

08.778.268/0001-60 SECRETARIA DE ESTADO DE SAUDE - PB

08/05/2020

000080520

400,00

 

2020010314

DOAÇÃO -
ENTRADA - ORG
EXTERNO

05/06/2020

00.394.544/0008-51 MINISTERIO DA SAUDE

01/06/2020

000316914

3.362.360,10

 

2020010317

DOAÇÃO -
ENTRADA - ORG
EXTERNO

04/06/2020

00.394.544/0008-51 MINISTERIO DA SAUDE

01/06/2020

000316916

224.010,20

 

2020010575

DOAÇÃO -
ENTRADA - ORG
EXTERNO

12/06/2020

07607851000570 EMPRESA BRASILEIRA DE HEMODERIVADOS E
BIOTECNOLOGIA - HEMOBRAS

08/06/2020

000006462

1.819.050,00

 

2020013752

DOAÇÃO -
ENTRADA - ORG
EXTERNO

14/07/2020

09357997000106 JAPUNGU AGROINDUSTRIAL SA

14/07/2020

000065254

0,02

 

Página: 69
f ENTRADAS DE MATERIAIS DE JANEIRO A DEZEMBRO

Valores em R$ 1,00

20/05/2021 20:49:52

 

2020014098

DOAÇÃO -
ENTRADA - ORG
EXTERNO

16/07/2020

07607851000570 EMPRESA BRASILEIRA DE HEMODERIVADOS E
BIOTECNOLOGIA - HEMOBRAS

10/07/2020

000006541

1.614.610,50

 

2020017302

DOAÇÃO -
ENTRADA - ORG
EXTERNO

11/08/2020

00.394.544/0008-51 MINISTERIO DA SAUDE

23/07/2020

000323407

398.393,01

 

2020017440

DOAÇÃO -
ENTRADA - ORG
EXTERNO

12/08/2020

07607851000570 EMPRESA BRASILEIRA DE HEMODERIVADOS E
BIOTECNOLOGIA - HEMOBRAS

11/08/2020

000006593

2.224.399,50

 

2020018808

DOAÇÃO -
ENTRADA - ORG
EXTERNO

21/08/2020

00.394.544/0008-51 MINISTERIO DA SAUDE

19/08/2020

000326577

242.127,35

 

2020019358

DOAÇÃO -
ENTRADA - ORG
EXTERNO

26/08/2020

08.778.268/0001-60 SECRETARIA DE ESTADO DE SAUDE - PB

26/08/2020

011242044

1.046,66

 

2020020437

DOAÇÃO -
ENTRADA - ORG
EXTERNO

27/08/2020

00.394.544/0008-51 MINISTERIO DA SAUDE

19/08/2020

000325954

236.958,04

 

2020020912

DOAÇÃO -
ENTRADA - ORG
EXTERNO

09/09/2020

00.394.544/0008-51 MINISTERIO DA SAUDE

02/09/2020

000327604

280.000,00

 

2020023346

DOAÇÃO -
ENTRADA - ORG
EXTERNO

01/10/2020

00.394.544/0008-51 MINISTERIO DA SAUDE

25/09/2020

000330402

30.928,59

 

Página: 70
ENTRADAS DE MATERIAIS DE JANEIRO A DEZEMBRO

Valores em R$ 1,00

20/05/2021 20:49:52

 

2020023798

DOAÇÃO -
ENTRADA - ORG
EXTERNO

2020024216

DOAÇÃO -
ENTRADA - ORG
EXTERNO

2020025214
DOAÇÃO -

ENTRADA - ORG
EXTERNO

2020025918
DOAÇÃO -

ENTRADA - ORG
EXTERNO

08/10/2020

13/10/2020

20/10/2020

27/10/2020

00.394.544/0008-51 MINISTERIO DA SAUDE

07607851000570 EMPRESA BRASILEIRA DE HEMODERIVADOS E
BIOTECNOLOGIA - HEMOBRAS

09357997000106 JAPUNGU AGROINDUSTRIAL SA

00.394.544/0008-51 MINISTERIO DA SAUDE

25/09/2020

08/10/2020

20/10/2020

23/10/2020

000329371

000006732

000066793

000332852

2.276.245,12

1.552.980,00

0,02

6.816,84

Página: 71
Er

| É ENTRADAS DE MATERIAIS DE JANEIRO A DEZEMBRO

Valores em R$ 1,00

20/05/2021 20:49:52

 

2020026435

DOAÇÃO -
ENTRADA - ORG
EXTERNO

03/11/2020

00.394.544/0008-51 MINISTERIO DA SAUDE

23/10/2020

000332596

741.097,92

 

2020026791

DOAÇÃO -
ENTRADA - ORG
EXTERNO

06/11/2020

08.778.268/0001-60 SECRETARIA DE ESTADO DE SAUDE - PB

04/11/2020

011804755

925,09

 

2020026878

DOAÇÃO -
ENTRADA - ORG
EXTERNO

06/11/2020

00.394.544/0008-51 MINISTERIO DA SAUDE

23/10/2020

000332595

4.605.944,62

 

2020027254

DOAÇÃO -
ENTRADA - ORG
EXTERNO

11/11/2020

07607851000570 EMPRESA BRASILEIRA DE HEMODERIVADOS E
BIOTECNOLOGIA - HEMOBRAS

10/11/2020

000006784

1.639.860,00

 

2020028549

DOAÇÃO -
ENTRADA - ORG
EXTERNO

23/11/2020

02.467.498/0001-22 LABORATORIO DE PATOLOGIA CLINICA S/S
LIMITADA HEMATO

23/11/2020

000000741

 

2020029745

DOAÇÃO -
ENTRADA - ORG
EXTERNO

01/12/2020

00.394.544/0008-51 MINISTERIO DA SAUDE

27/11/2020

000334357

18.575,55

 

2020032186

DOAÇÃO -
ENTRADA - ORG
EXTERNO

14/12/2020

07607851000570 EMPRESA BRASILEIRA DE HEMODERIVADOS E
BIOTECNOLOGIA - HEMOBRAS

10/12/2020

000006859

1.520.400,00

 

2020033133

DOAÇÃO -
ENTRADA - ORG
EXTERNO

16/12/2020

08.778.268/0001-60 SECRETARIA DE ESTADO DE SAUDE - PB

16/12/2020

012148210

1.114,80

 

Página: 72
 

 

 

Valores em R$ 1,00
f ENTRADAS DE MATERIAIS DE JANEIRO A DEZEMBRO
20/05/2021 20:49:52
2020034633 2112/2020 00.394.544/0008-51 MINISTERIO DA SAUDE 07/12/2020 000335374 1.579.646,37
DOAÇÃO -
ENTRADA - ORG
EXTERNO
2020035322 2812/2020 00.394.544/0008-51 MINISTERIO DA SAUDE 04/12/2020 000335373 106.547,34
DOAÇÃO -
ENTRADA - ORG
EXTERNO
25.394.342,88

Página: 73
Valores em R$ 1,00

 

sm ENTRADAS DE MATERIAIS DE JANEIRO A DEZEMBRO
20/05/2021 20:49:52

 

Total 104.430.907,19

Página: 74
 

SENADO FEDERAL
Secretaria-Geral da Mesa
Secretaria de Comissões
Coordenação de Comissões Especiais, Temporárias e Parlamentares de Inquérito

Ofício nº 1047/2021 - CPIPANDEMIA
Brasília, 7 de maio de 2021

A Sua Excelência o Senhor
João Azevêdo
Governador da Paraíba

Assunto: Solicitação de informações — Requerimento nº 470/2021-CPIPANDEMIA

Senhor Governador,

No intuito de instruir os trabalhos da Comissão Parlamentar de Inquérito,
criada pelos Requerimentos do Senado Federal nº 1371 e 1372, de 2021, para “apurar as
ações e omissões do Governo Federal no enfrentamento da Pandemia da Covid-19 no
Brasil; as possíveis irregularidades, bem como outras ações ou omissões cometidas por
administradores públicos federais, estaduais e municipais, no trato com a coisa pública,
limitado apenas quanto à fiscalização dos recursos da União repassados aos demais entes
federados para as ações de prevenção e combate à Pandemia da Covid-19”, e com fulcro
no art. 148 do Regimento Interno do Senado Federal, e no art. 2º da Lei nº 1.579, de 1952,
encaminho a Vossa Excelência o Requerimento nº 470/2021 — CPIPANDEMIA,
aprovado na 5º Reunião da CPI da Pandemia, ocorrida no dia 06.05.2021, para

atendimento.

Solicito que a documentação seja encaminhada no prazo de 10 (dez) dias

úteis, em meio magnético, para o endereço eletrônico sec.cpipandemia(asenado.leg.br.
Atenciosamente,

Senador Omar Aziz
Presidente da CPI Pandemia

SENADO FEDERAL - COCETI | Anexo II, Ala Senador Alexandre Costa, Sala 15, Subsolo | CEP 70165-900 | Brasília DF
Telefone: +55 (61) 3303-3490 sec.cpipandemiaQDsenado leg br

 

ARQUIVO ASSINADO DIGITALMENTE, CÓD

 
ADO FEDERAL 0470/2021"

Gabinete do Senador EDUARDO GIRÃO

 

COMISSÃO PARLAMENTAR DE INQUERITO DA PANDEMIA
CPI-PANDEMIA

REQUERIMENTO Nº ........ » DE 2021 - CPIPANDEMIA

Requer a prestação de informações em
meio digital pelos 26 Estados da
Federação, suas respectivas capitais e
Distrito Federal, acerca da Folha de
Pagamento desses Entes Federativos.

Sr. Presidente,

Requeiro, nos termos do 8 3º do art. 58 da Constituição Federal,
combinado com o art. 2º da Leinº 1.579, de 18 de março de 1952,e como art. 148
do Regimento Interno do Senado Federal, que seja solicitado aos chefes do Poder
Executivo dos 26 Estados da Federação, suas respectivas capitais e Distrito Federal,
as seguintes informações detalhadas a serem envidas com brevidade máxima a esta
CPI:

a) Todas as publicações no diário oficial dos decretos que
reconhecem estado de calamidade pública em razão da pandemia provocada pelo
coronavírus SARS-COV-2;

b) Evolução da folha de pagamento por função de governo
(obedecendo à classificação atualizada da Portaria MPOG nº 42 de 14.04.1999),
iniciando a série histórica em março de 2020 e finalizando na competência de março
de 2021;

c) Comparação da Folha relativa aos meses assinalados no item
(b) com o mesmo período do ano anterior, informando o crescimento percentual;

d) Fonte de recursos que custeou o pagamento de cada Folha de
Salários contida no item (b) (evidenciando, principalmente, âquelas pagas com
recursos provindos de transferências do governo federal com vinculação específica
para combate à pandemia);

 

SF/21949.75270-96
* ADO FEDERAL

 

Gabinete do Senador EDUARDO GIRÃO

e) Legislações expedidas (leis, decretos, portarias, etc) tratando
sobre a concessão de gratificações extraordinárias, aumento de remuneração,
prêmios, auxílios ou quaisquer tipos de vantagens concedidas a servidores ou
contratados pela Administração pela atuação na pandemia;

f) Discriminação do quantitativo de profissionais estranhos ao
quadro de servidores que foram contratados no período após a expedição do
decreto de calamidade pública (informar o quantitativo por cargo e lotação, a forma
de contratação e a fonte de recursos que remunerou esses profissionais);

g) Evidenciação da folha de pagamento da Função Saúde por tipo
de profissional (enfermeiros, médicos, plantonistas, auxiliares, etc), separando os
servidores dos profissionais contratados, em todo o período assinalado no item (a)
deste requerimento;

h) Planilha com os valores enviados via transferências de
recursos para pessoas jurídicas de direito privado sem fins lucrativos que tenham
tido atuação na pandemia, principalmente àquelas com atuação na área da saúde,
informando a fonte de recursos dos pagamentos, os contratos, aditivos e as
respectivas prestações de contas.

JUSTIFICAÇÃO

A CPI da Pandemia tem entre seus objetivos, o de fiscalizar a
aplicação de recursos da União repassados aos demais entes federados para as ações
de prevenção e combate à Pandemia provocada pela COVID-19. Com esse escopo
definido, o presente requerimento tem o viso de solicitar informações acerca da
Folha de Pagamento desses Entes, de forma a subsidiar a comissão de informações
que possam vir a atestar se houve ou não aplicação irregular dos recursos
originados da União Federal por parte dos Administradores Públicos estaduais e
municipais.

Diante do exposto, espero contar com o apoio dos nobres pares
para a aprovação deste requerimento.

Sala das Comissões, em

Senador EDUARDO GIRÃO

 
Governo do Estado

 

RESPOSTA AO OFÍCIO 826/2021 — CPI DA PANDEMIA

Ao Excelentíssimo Senhor
Senador Omar Aziz
Presidente da CPI da Pandemia

Ofício PGE 076/2021

João Pessoa, 27 de maio de 2021.

Em atenção ao ofício 826/2021, subscrito pelo senador Omar Aziz,
solicitando informações ao Estado da Paraíba, referentes aos requerimentos aprovados
no âmbito da CPI da Pandemia do Senado Federal, tem-se a informar que nos anos de
2020 e de 2021 não houve contratos firmados com instituições privadas sem fins
lucrativos, a exemplo de OS*s e OSCIP"s.

Destaque-se que a resposta foi elaborada em consonância com as
diretrizes fixadas na Nota Técnica elaborada pelo Colégio Nacional do Procuradores
Gerais do Estados e do Distrito Federal - CONPEG, bem como da Nota Técnica da
Consultoria Legislativa do Senado, datada de 10 de maio do ano em curso,
documentos que acompanharam o OFÍCIO Nº 48/2021, encaminhado pelo Fórum dos
Governadores ao Presidente da CPI, senador Omar Aziz, e que também integram os
anexos desta resposta.

 

Procurador-Geral do Estado da Paraíba
cpi4all_arquivo_nao_suportado: /tmp/tmpz6df3d5_/cpi4all_11_ANEXO_ITEM__D_extratos_fonte__119_conta_sefaz_14008-2.rar
2Z0 maizon 12:05 Exercício:

   

[2] órgão: [ 270001 - secretaria De EstADO DO Desem/

 

Início» Módulo Financeiro » Consultas Financeiras» Movimentação de Recurso

Movimentação de Recurso

Húmero da AR

 

| infos da MR | Histórico MR | Lançamentos

 

 

     
 
  

Exercício

Gestora | 270001 SEDH Húmero da MR
SEDA

 

Órgão Destino REMESSA-:

Siuação!Data AUTORIZADO Em [ q4r04202]
nmeromaor [5280] [O] (am

RNOGDO DOM ZIO0DHNOGHA 7] sieser ]

 

 

BancolAgência

Conta Corrente 18151

Conta Contábil

 

l
Grginorem [Zumo] [semz )tmotênca — (isbonamaço ]

Bancoligênca [17] Cod. Fnaléade

Conta Corrente 18.008 PESSOAL E ENCARGOS SOCIAIS - 1
Conta Contábil 144440286,001 1:200001.00046

Data de 14/04/2021
Uvimento
guiado
(OA ordenador MARIANO UAURENO BOSS
Processamento
me RD) Ma Fesgonsárer [ENEREDETAACOUTINGOA SINA

&rupo Financeiro

 

 

   

20 maizom 12:06 Exercício: Órgão: [ 270004 - SECRETARIA DE ESTADO DO DESEN |
início + Módulo Financeiro + Consultas Financeiras + Movimentação de Recurso

Movimentação de Recurso

Número da MR

 

| imtos car Histórico MR | Lançamentos

 

 

   
   

Exercício

 

Órgão Destino REMESSA

 

Bancofagência

Conta Corrente:

1448

 

 

 

 

Conia Conti [TiicEssmari=TasGraasos 7] smusser ]
órstoorgem [Emma] [[5emez | imotinca  [EmasEDO ]
BancolAgência

 
  

Conta Corrente: Grupo Financeiro

Conta Contábil 111110288.001.1.200001.00046
Data de 2304/2021

ETA ordenador MARIANO LAURENIO DOS
Data de a 22/04/2021 Hora = Responsável “SIMONE DE FATIMA COUTINHO DA SILVA

 

 
 

19 maizon 2015 Exercício: [2020 [+ | Órgãos [ 250001 - SECRETARIA DE ESTADO DA SAUDE |

  

Início » Módulo Financeiro » Consultas Financeiras > Movimentação de Recurso

Movimentação de Recurso

 

Número da MR

 

| infos da mA | HistóricomA | Lançamentos

 

    
 

Exercício

Órgão Destino

 

REMESSA-

Siluação/Data AUTORIZADO. eu [ 07082020

Conta Comáti (Cica noriizsmaoroames 7] smusser ]

BancolAgência

 

 

rsioormem — [Emo] (Hen | ireenires (FRESNO ]

EE

   

BancolAgência

Conta Corrente

Conta Contábil 111110289.001.1.200001.00046

Data do 07/08/2020

movimento

Bata de rmspszo ordenador NARIALVO DAUREANO DOS 5
Pracessamento

Datado 7108/2020] Mora Responsável | ANDERSON CARRAZZONI CAMPOS VIDERES.
Rualização aalização

Grupo Financeiro

 

 

   

19 maizon 20:16 Exercício: Orgão: | 250001 - SECRETARIA DE ESTADO DA SAUDE |» |
início + Módulo Financeiro + Consultas Financeiras + Movimentação de Recurso

Movimentação de Recurso

 

Número da AR

 

| mtos catar Histórico MR | Lançamentos

 

    
 

Exercício Gestora

 

mma o a
sfueçioei eu
contaconente (AR) [57] número (670) [O] [5]

 

Órgão Destino --REMESSA-

 

BancolAgência

 

 

 

 

Cont Conti [MORNO OGI/ESOOOTODE2S) stueser ]
rséoorgem [Emo] [AZ | imootónco — [Tizononão ]
Banco/Agência

 
  

Conta Corrente 14008 OUTRAS DESPESAS CORRENTES -3

Conta Contábil 111110299.001.1.200001.00046

Data de 21/08/2020

Moviménio

Date de iba ordenador (ARAL AUFERIO DOSE
Processamento

Datado 21/08/2020 Hora Responsável | ANDERSON CARRAZZONI CAMPOS VIDERES.
Aaização Aualzação

Grupo Financeiro

 

 

 
19 maizon 2016 Exercício: [2020 [2] órgão: [ 250001 - SECRETARIA DE ESTADO DA SAuDE [2]

 

Início» Módulo Financeiro > Consultas Financeiras > Movimentação de Recurso

Movimentação de Recurso

 

 

mimerocame [557]

| infos da mA | Histórico | Lançamentos

-
(es) stusçáooaa eu (roma)
Coria Comente (SE) Nmaroaamtoro [EE] (O) [1]

Conia Comi (ro iZSM00TanGEE 7] suusser ]

 

Exercício

ôrgão Destino

     

-REMESSA-

BancofAgência

 

 

 

ôrstoorgem (Emos ) [sema | monônca — [Essorooopr ]

 

BancotAgência

Conta Corrente

Conta Contábil 111110289.001.1.200001.00046

Data do

Movimento Evo 02)

Data do

dede o (rgasznão Ortenador ARA CAREMO DOSE
e 1 Responsável [ EMONEDE FATIMA GOUTHÃO DA SINA

“Grupo Financeiro

   

 

 

19 maizoa 20:17

Órgão: | 250001 - SECRETARIA DE ESTADO DA SAUDE |“ |

   

Início» Médulo Financeiro > Consultas Financeiras > Movimentação de Recurso

 

Movimentação de Recurso

 

Húmero da MR

 

| infos da MR | Histórico MR | Lançamentos

exráco [E] ouer número dous [502]
-
stunçioata eu
contaconente (7) [57] meras (E) [0 [e]

Conta Contábil

 

 

Órgão Destino REMESSA.

      

BancofAgência

 

Rico OOMABEnOnTanaS DT] siteser ]

 

 

[
Grsãooraem — [Ermo] (EEmE ) imeotênco (Fm ]

 

1

Bancofagência |

  

Conta Corrente 14.008

Data de 20/11/2020
Data de [Enminoz ordenador HARALNO LAUREANODOSS
Data de (Bonn | ea Responsável [ SIMONE DE FATINA COUTINHO DA SILVA

Grupo Financeiro

 

Atualização

 

 
19 maizon 20:20 Exercício:

   

250001 - SECRETARIA DE ESTADO DA SAUDÁ

 

Início > Módulo Financeiro » Consultas Finan » Movimentação de Recurso

Movimentação de Recurso

nimerocame [277]

| infos da mr | HistóriconaR | Lançamentos

caca [ET] [RE imemdcir DE

 

 

    
 

Exercício

ôrgão Desino

 

REMESSA-

Siuação/Data AUTORIZADO. em [ 051022021
contecurento (7a) [5] nós [EM] (O) (em

Conia Conti (ORGODALIZSGNOHBDGES 7] Sousser ]

 

BancotAgência

 

rsioorgem [Emo] (EE ) remo (EEE ]

Cod. Finalidade [000
PESSOAL EENCARGOS SOCIAIS 1

 
  

BancotAgência

Conta Corrente

14008
Conta Contábil 111110299,001.1.200001.00046.

Data de
Movimento (EEE

Data de EA ordenador MARIANO UAUREANO DOSS
Prcessamento

Dotado osmmo | ia Responsável [ SIONEDE FATINA COUTINHO DA SILVA

Rlalzação atulização

Grupo Financeiro

 

 

 

   

19 maizon 20:21 Exercício: [2] órgão: [ 250001 - SECRETARIA DE ESTADO DA SAUDE| |
início» Módulo Financeiro » Consultas Financeiras > Movimentação de Recurso

Movimentação de Recurso

 

 

Número da MR

 

| InfosdalMR | Histórico MR | Lançamentos

 

    
 

Exercício Gestora

número
steçionas  [ROREDO O) em
cont carene [RA] números [2] [e]

Coma Cortés (TANTEOGOOT ESTO) suvesee ]

   

Órgão Destino -REMESSA--

 

BancofAgência

 

ôriooriaem  [Enooor ] ([5e5= )dimonónca  [Ho350AEES ]

   

BancolAgência

Conta Corrente

ams

Conta Contábil 111110289.001.1.200001.00046

Data de 6/03/2021

Pres
oscar orensdor (250257) [MananoUamEMioDOSS

Processamento

Data de
Atualização

Grupo Financeiro

 

 

Hora

[E

[247] Responsáve ([SMONEDEFATILACOLTHHO DA SINA ]

 
19 maizon 20:21 Exercício:

 

[x] órgão: [ 250001 - SECRETARIA DE ESTADO DA SAUDE |» |

 

início» Módulo Financeiro » Consultas Financeiras > Movimentação de Recurso

Movimentação de Recurso

 

Número da MR

 

| infos da mmR | HistóricomR | Lançamentos

 

    
 

Exercício

esta número dna
-
stunçáota eu
comacorene (iso [57] números [525] (8)

Conta Conttt [AMICS GOL T2SN0OTAGGES] suveser ]

 

Órgão Destino -REMESSA-

 

 

BancorAgência

 

 

ôrsinorgem [Emos ) [sem | imentónca — (iromazanão ]

BancoiAgência

 

Gonta Corrente

Conta Contábil 11410299.001.1.200001 00046)

Data de
Movimento

Grupo Financeiro

 

28/04/1201

Data de

spa ordenador ARALO LAURENIO DOS
Processamento
Data de Responsável SIMONE DE FATIMA COUTINHO DA SILVA

Atualização

Hora
Atualização

28/04/2021

 
 

 

SENADO FEDERAL

Secretaria-Geral da Mesa
Secretaria de Comissões
Coordenação de Comissões Especiais, Temporárias e Parlamentares de Inquérito

Oficio nº 667/2021 - CPIPANDEMIA
Brasília, 7 de maio de 2021

A Sua Excelência o Senhor
João Azevêdo
Governador da Paraíba

Assunto: Solicitação de informações — Requerimento nº 446/2021-CPIPANDEMIA

Senhor Governador,

No intuito de instruir os trabalhos da Comissão Parlamentar de Inquérito,
criada pelos Requerimentos do Senado Federal nº 1371 e 1372, de 2021, para “apurar as
ações e omissões do Governo Federal no enfrentamento da Pandemia da Covid-19 no
Brasil; as possíveis irregularidades, bem como outras ações ou omissões cometidas por
administradores públicos federais, estaduais e municipais, no trato com a coisa pública,
limitado apenas quanto à fiscalização dos recursos da União repassados aos demais entes
federados para as ações de prevenção e combate à Pandemia da Covid-19”, e com fulcro
no art. 148 do Regimento Interno do Senado Federal, e no art. 2º da Leinº 1.579, de 1952,
encaminho a Vossa Excelência o Requerimento nº 446/2021 — CPIPANDEMIA,
aprovado na 5º Reunião da CPI da Pandemia, ocorrida no dia 06.05.2021, para

atendimento.

Solicito que a documentação seja encaminhada no prazo de 10 (dez) dias

úteis, em meio magnético, para o endereço eletrônico sec.cpipandemia(msenado.leg.br.
Atenciosamente,

Senador Omar Aziz
Presidente da CPI Pandemia

 

SENADO FEDERAL — COCETI | Anexo II, Ala Senador Alexandre Costa, Sala 15, Subsolo | CEP 70165-900 | Brasília DF
Telefone: +55 (61) 3303-3490 sec.opipandemiagsenado.leg.br

ARQUIVO ASSINADO DIG|

 

jODIGO DE Vi

 
SENADO FEDERAL “0446/2021

Gabinete do Senador EDUARDO GIRÃO

 

COMISSÃO PARLAMENTAR DE INQUERITO DA PANDEMIA
CPI-PANDEMIA

REQUERIMENTO Nº ...scs » DE 2021 - CPIPANDEMIA

Requer a prestação de informações em
meio digital pelos 26 Estados da
Federação, suas respectivas capitais e
Distrito Federal, acerca do panorama
geral dos gastos desses governos com a
pandemia.

Sr. Presidente,

Requeiro, nos termos do 8 3º do art. 58 da Constituição Federal,
combinado com o art. 2º da Leinº 1.579, de 18 de março de 1952, e com o art. 148
do Regimento Interno do Senado Federal, que seja solicitado aos chefes do Poder
Executivo dos 26 Estados da Federação, suas respectivas capitais e Distrito Federal,
respostas detalhadas às seguintes indagações a serem envidas com brevidade
máxima a esta CPI:

a) Qualo valor total recebido de fontes externas ao orçamento do
tesouro com destinação específica para combate à pandemia? Detalhar o nome da
fonte, a origem do recurso, o valor recebido mês a mês a partir do início da vigência
do decreto que reconhece estado de calamidade pública em razão da pandemia
provocada pelo Coronavírus SARS-COV-2;

b) Qualo valor total gasto em cada fonte de recurso detalhada no
item (a) por item de despesa? Detalhar o objeto da despesa, o nome do fornecedor,
CNPJ, órgão que realizou a despesa, o nº do processo licitatório, dispensa ou
inexigibilidade, conforme o caso, o número da nota de empenho e quantitativos
adquiridos unitários e totais;

c) Existem programações orçamentárias específicas ou
marcadores no orçamento que identifiquem tais gastos? Em caso positivo, enviar as
informações pertinentes em planilha eletrônica ou PDF;

d) Os recursos recebidos da União Federal foram mantidos em
conta bancária separada para melhor controle do seu uso? Envie todas as
movimentações bancárias desde o início da pandemia;

e) Há Demonstrativo do Fluxo de caixa de cada uma das fontes
detalhadas no item (a) demonstrando entradas, saídas e saldos? Enviar
demonstrativo juntamente com os respectivos extratos bancários;

 

SF/21071.14426-15
SENADO FEDERAL
Gabinete do Senador EDUARDO GIRÃO

 

£) Algum saldo de alguma das fontes detalhadas no item (a) foi
incorporado à conta única do tesouro? Especifique;

g) Faça um comparativo entre os valores gastos com recursos do
tesouro estadual/municipal versus os gastos realizados com recursos de fontes
externas, principalmente da União Federal, recebidos exclusivamente para
aplicação na calamidade pública;

h) Foi contratada alguma operação de crédito interna ou externa
para obtenção de recursos para combate à pandemia? Enviar toda a documentação
pertinente;

i) Foifirmado algum termo de cooperação ou acordo comalguma
instituição nacional ou internacional para combate à COVID-19? Algum tipo de
benefício pecuniário ou vantagem de qualquer natureza estão contidas no
documento? Envie a documentação pertinente;

j) Houve doações em dinheiro ou de material ou mesmo cessão
de uso de bens móveis ou imóveis? Especifique;

k) Quais Leis foram aprovadas ou decretos foram expedidos
contendo medidas de ordem econômico financeira durante a pandemia, como
reparcelamento de dívidas e renúncia de receita? Envie a publicação destes
normativos e as informações quantitativas sobre esses dados, com o respectivo
impacto nas contas públicas;

D Em qual medida as transferências recebidas da União Federal
à título de combate à pandemia aliviaram a frustação de receitas nesse período? O
Enviar planilha evidenciando o déficit ou superávit na conta única do tesouro
decorrente da participação dos recursos transferidos;

JUSTIFICAÇÃO

A CPI da Pandemia tem entre seus objetivos, o de fiscalizar a
aplicação de recursos da União repassados aos demais entes federados para as ações
de prevenção e combate à Pandemia provocada pela COVID-19. Com esse escopo
definido, o presente requerimento tem o viso de solicitar informações sobre as
contas públicas desses Entes, de forma a subsidiar a comissão de informações que
possam vir a atestar se houve ou não aplicação irregular dos recursos originados da
União Federal por parte dos Administradores Públicos estaduais e municipais.

Diante do exposto, espero contar com o apoio dos nobres pares
para a aprovação deste requerimento.

Sala das Comissões, em

Senador Eduardo Girão

 
   

SF/21071.
